ARM GAS  C:\Users\cinar\AppData\Local\Temp\ccnsnn81.s 			page 1


   1              		.cpu cortex-m7
   2              		.eabi_attribute 28, 1
   3              		.eabi_attribute 20, 1
   4              		.eabi_attribute 21, 1
   5              		.eabi_attribute 23, 3
   6              		.eabi_attribute 24, 1
   7              		.eabi_attribute 25, 1
   8              		.eabi_attribute 26, 1
   9              		.eabi_attribute 30, 1
  10              		.eabi_attribute 34, 1
  11              		.eabi_attribute 18, 4
  12              		.file	"stm32h7xx_hal_rcc.c"
  13              		.text
  14              	.Ltext0:
  15              		.cfi_sections	.debug_frame
  16              		.section	.text.HAL_RCC_DeInit,"ax",%progbits
  17              		.align	1
  18              		.global	HAL_RCC_DeInit
  19              		.arch armv7e-m
  20              		.syntax unified
  21              		.thumb
  22              		.thumb_func
  23              		.fpu fpv5-d16
  25              	HAL_RCC_DeInit:
  26              	.LFB144:
  27              		.file 1 "Drivers/STM32H7xx_HAL_Driver/Src/stm32h7xx_hal_rcc.c"
   1:Drivers/STM32H7xx_HAL_Driver/Src/stm32h7xx_hal_rcc.c **** /**
   2:Drivers/STM32H7xx_HAL_Driver/Src/stm32h7xx_hal_rcc.c ****   ******************************************************************************
   3:Drivers/STM32H7xx_HAL_Driver/Src/stm32h7xx_hal_rcc.c ****   * @file    stm32h7xx_hal_rcc.c
   4:Drivers/STM32H7xx_HAL_Driver/Src/stm32h7xx_hal_rcc.c ****   * @author  MCD Application Team
   5:Drivers/STM32H7xx_HAL_Driver/Src/stm32h7xx_hal_rcc.c ****   * @brief   RCC HAL module driver.
   6:Drivers/STM32H7xx_HAL_Driver/Src/stm32h7xx_hal_rcc.c ****   *          This file provides firmware functions to manage the following
   7:Drivers/STM32H7xx_HAL_Driver/Src/stm32h7xx_hal_rcc.c ****   *          functionalities of the Reset and Clock Control (RCC) peripheral:
   8:Drivers/STM32H7xx_HAL_Driver/Src/stm32h7xx_hal_rcc.c ****   *           + Initialization and de-initialization functions
   9:Drivers/STM32H7xx_HAL_Driver/Src/stm32h7xx_hal_rcc.c ****   *           + Peripheral Control functions
  10:Drivers/STM32H7xx_HAL_Driver/Src/stm32h7xx_hal_rcc.c ****   *
  11:Drivers/STM32H7xx_HAL_Driver/Src/stm32h7xx_hal_rcc.c ****   @verbatim
  12:Drivers/STM32H7xx_HAL_Driver/Src/stm32h7xx_hal_rcc.c ****   ==============================================================================
  13:Drivers/STM32H7xx_HAL_Driver/Src/stm32h7xx_hal_rcc.c ****                       ##### RCC specific features #####
  14:Drivers/STM32H7xx_HAL_Driver/Src/stm32h7xx_hal_rcc.c ****   ==============================================================================
  15:Drivers/STM32H7xx_HAL_Driver/Src/stm32h7xx_hal_rcc.c ****     [..]
  16:Drivers/STM32H7xx_HAL_Driver/Src/stm32h7xx_hal_rcc.c ****       After reset the device is running from Internal High Speed oscillator
  17:Drivers/STM32H7xx_HAL_Driver/Src/stm32h7xx_hal_rcc.c ****       (HSI 64MHz) with Flash 0 wait state,and all peripherals are off except
  18:Drivers/STM32H7xx_HAL_Driver/Src/stm32h7xx_hal_rcc.c ****       internal SRAM, Flash, JTAG and PWR
  19:Drivers/STM32H7xx_HAL_Driver/Src/stm32h7xx_hal_rcc.c ****       (+) There is no pre-scaler on High speed (AHB) and Low speed (APB) buses;
  20:Drivers/STM32H7xx_HAL_Driver/Src/stm32h7xx_hal_rcc.c ****           all peripherals mapped on these buses are running at HSI speed.
  21:Drivers/STM32H7xx_HAL_Driver/Src/stm32h7xx_hal_rcc.c ****       (+) The clock for all peripherals is switched off, except the SRAM and FLASH.
  22:Drivers/STM32H7xx_HAL_Driver/Src/stm32h7xx_hal_rcc.c ****       (+) All GPIOs are in analogue mode , except the JTAG pins which
  23:Drivers/STM32H7xx_HAL_Driver/Src/stm32h7xx_hal_rcc.c ****           are assigned to be used for debug purpose.
  24:Drivers/STM32H7xx_HAL_Driver/Src/stm32h7xx_hal_rcc.c **** 
  25:Drivers/STM32H7xx_HAL_Driver/Src/stm32h7xx_hal_rcc.c ****     [..]
  26:Drivers/STM32H7xx_HAL_Driver/Src/stm32h7xx_hal_rcc.c ****       Once the device started from reset, the user application has to:
  27:Drivers/STM32H7xx_HAL_Driver/Src/stm32h7xx_hal_rcc.c ****       (+) Configure the clock source to be used to drive the System clock
  28:Drivers/STM32H7xx_HAL_Driver/Src/stm32h7xx_hal_rcc.c ****           (if the application needs higher frequency/performance)
  29:Drivers/STM32H7xx_HAL_Driver/Src/stm32h7xx_hal_rcc.c ****       (+) Configure the System clock frequency and Flash settings
  30:Drivers/STM32H7xx_HAL_Driver/Src/stm32h7xx_hal_rcc.c ****       (+) Configure the AHB and APB buses pre-scalers
  31:Drivers/STM32H7xx_HAL_Driver/Src/stm32h7xx_hal_rcc.c ****       (+) Enable the clock for the peripheral(s) to be used
ARM GAS  C:\Users\cinar\AppData\Local\Temp\ccnsnn81.s 			page 2


  32:Drivers/STM32H7xx_HAL_Driver/Src/stm32h7xx_hal_rcc.c ****       (+) Configure the clock kernel source(s) for peripherals which clocks are not
  33:Drivers/STM32H7xx_HAL_Driver/Src/stm32h7xx_hal_rcc.c ****           derived from the System clock through :RCC_D1CCIPR,RCC_D2CCIP1R,RCC_D2CCIP2R
  34:Drivers/STM32H7xx_HAL_Driver/Src/stm32h7xx_hal_rcc.c ****           and RCC_D3CCIPR registers
  35:Drivers/STM32H7xx_HAL_Driver/Src/stm32h7xx_hal_rcc.c **** 
  36:Drivers/STM32H7xx_HAL_Driver/Src/stm32h7xx_hal_rcc.c ****                       ##### RCC Limitations #####
  37:Drivers/STM32H7xx_HAL_Driver/Src/stm32h7xx_hal_rcc.c ****   ==============================================================================
  38:Drivers/STM32H7xx_HAL_Driver/Src/stm32h7xx_hal_rcc.c ****     [..]
  39:Drivers/STM32H7xx_HAL_Driver/Src/stm32h7xx_hal_rcc.c ****       A delay between an RCC peripheral clock enable and the effective peripheral
  40:Drivers/STM32H7xx_HAL_Driver/Src/stm32h7xx_hal_rcc.c ****       enabling should be taken into account in order to manage the peripheral read/write
  41:Drivers/STM32H7xx_HAL_Driver/Src/stm32h7xx_hal_rcc.c ****       from/to registers.
  42:Drivers/STM32H7xx_HAL_Driver/Src/stm32h7xx_hal_rcc.c ****       (+) This delay depends on the peripheral mapping.
  43:Drivers/STM32H7xx_HAL_Driver/Src/stm32h7xx_hal_rcc.c ****       (+) If peripheral is mapped on AHB: the delay is 2 AHB clock cycle
  44:Drivers/STM32H7xx_HAL_Driver/Src/stm32h7xx_hal_rcc.c ****           after the clock enable bit is set on the hardware register
  45:Drivers/STM32H7xx_HAL_Driver/Src/stm32h7xx_hal_rcc.c ****       (+) If peripheral is mapped on APB: the delay is 2 APB clock cycle
  46:Drivers/STM32H7xx_HAL_Driver/Src/stm32h7xx_hal_rcc.c ****           after the clock enable bit is set on the hardware register
  47:Drivers/STM32H7xx_HAL_Driver/Src/stm32h7xx_hal_rcc.c **** 
  48:Drivers/STM32H7xx_HAL_Driver/Src/stm32h7xx_hal_rcc.c ****     [..]
  49:Drivers/STM32H7xx_HAL_Driver/Src/stm32h7xx_hal_rcc.c ****       Implemented Workaround:
  50:Drivers/STM32H7xx_HAL_Driver/Src/stm32h7xx_hal_rcc.c ****       (+) For AHB & APB peripherals, a dummy read to the peripheral register has been
  51:Drivers/STM32H7xx_HAL_Driver/Src/stm32h7xx_hal_rcc.c ****           inserted in each __HAL_RCC_PPP_CLK_ENABLE() macro.
  52:Drivers/STM32H7xx_HAL_Driver/Src/stm32h7xx_hal_rcc.c **** 
  53:Drivers/STM32H7xx_HAL_Driver/Src/stm32h7xx_hal_rcc.c ****   @endverbatim
  54:Drivers/STM32H7xx_HAL_Driver/Src/stm32h7xx_hal_rcc.c ****  ******************************************************************************
  55:Drivers/STM32H7xx_HAL_Driver/Src/stm32h7xx_hal_rcc.c ****   * @attention
  56:Drivers/STM32H7xx_HAL_Driver/Src/stm32h7xx_hal_rcc.c ****   *
  57:Drivers/STM32H7xx_HAL_Driver/Src/stm32h7xx_hal_rcc.c ****   * <h2><center>&copy; COPYRIGHT(c) 2017 STMicroelectronics.
  58:Drivers/STM32H7xx_HAL_Driver/Src/stm32h7xx_hal_rcc.c ****   * All rights reserved.</center></h2>
  59:Drivers/STM32H7xx_HAL_Driver/Src/stm32h7xx_hal_rcc.c ****   *
  60:Drivers/STM32H7xx_HAL_Driver/Src/stm32h7xx_hal_rcc.c ****   * This software component is licensed by ST under BSD 3-Clause license,
  61:Drivers/STM32H7xx_HAL_Driver/Src/stm32h7xx_hal_rcc.c ****   * the "License"; You may not use this file except in compliance with the
  62:Drivers/STM32H7xx_HAL_Driver/Src/stm32h7xx_hal_rcc.c ****   * License. You may obtain a copy of the License at:
  63:Drivers/STM32H7xx_HAL_Driver/Src/stm32h7xx_hal_rcc.c ****   *                        opensource.org/licenses/BSD-3-Clause
  64:Drivers/STM32H7xx_HAL_Driver/Src/stm32h7xx_hal_rcc.c ****   *
  65:Drivers/STM32H7xx_HAL_Driver/Src/stm32h7xx_hal_rcc.c ****   ******************************************************************************
  66:Drivers/STM32H7xx_HAL_Driver/Src/stm32h7xx_hal_rcc.c ****   */
  67:Drivers/STM32H7xx_HAL_Driver/Src/stm32h7xx_hal_rcc.c **** 
  68:Drivers/STM32H7xx_HAL_Driver/Src/stm32h7xx_hal_rcc.c **** /* Includes ------------------------------------------------------------------*/
  69:Drivers/STM32H7xx_HAL_Driver/Src/stm32h7xx_hal_rcc.c **** #include "stm32h7xx_hal.h"
  70:Drivers/STM32H7xx_HAL_Driver/Src/stm32h7xx_hal_rcc.c **** 
  71:Drivers/STM32H7xx_HAL_Driver/Src/stm32h7xx_hal_rcc.c **** /** @addtogroup STM32H7xx_HAL_Driver
  72:Drivers/STM32H7xx_HAL_Driver/Src/stm32h7xx_hal_rcc.c ****   * @{
  73:Drivers/STM32H7xx_HAL_Driver/Src/stm32h7xx_hal_rcc.c ****   */
  74:Drivers/STM32H7xx_HAL_Driver/Src/stm32h7xx_hal_rcc.c **** 
  75:Drivers/STM32H7xx_HAL_Driver/Src/stm32h7xx_hal_rcc.c **** /** @defgroup RCC  RCC
  76:Drivers/STM32H7xx_HAL_Driver/Src/stm32h7xx_hal_rcc.c ****   * @brief RCC HAL module driver
  77:Drivers/STM32H7xx_HAL_Driver/Src/stm32h7xx_hal_rcc.c ****   * @{
  78:Drivers/STM32H7xx_HAL_Driver/Src/stm32h7xx_hal_rcc.c ****   */
  79:Drivers/STM32H7xx_HAL_Driver/Src/stm32h7xx_hal_rcc.c **** 
  80:Drivers/STM32H7xx_HAL_Driver/Src/stm32h7xx_hal_rcc.c **** #ifdef HAL_RCC_MODULE_ENABLED
  81:Drivers/STM32H7xx_HAL_Driver/Src/stm32h7xx_hal_rcc.c **** 
  82:Drivers/STM32H7xx_HAL_Driver/Src/stm32h7xx_hal_rcc.c **** /* Private typedef -----------------------------------------------------------*/
  83:Drivers/STM32H7xx_HAL_Driver/Src/stm32h7xx_hal_rcc.c **** /* Private define ------------------------------------------------------------*/
  84:Drivers/STM32H7xx_HAL_Driver/Src/stm32h7xx_hal_rcc.c **** /* Private macro -------------------------------------------------------------*/
  85:Drivers/STM32H7xx_HAL_Driver/Src/stm32h7xx_hal_rcc.c **** /** @defgroup RCC_Private_Macros RCC Private Macros
  86:Drivers/STM32H7xx_HAL_Driver/Src/stm32h7xx_hal_rcc.c ****   * @{
  87:Drivers/STM32H7xx_HAL_Driver/Src/stm32h7xx_hal_rcc.c ****   */
  88:Drivers/STM32H7xx_HAL_Driver/Src/stm32h7xx_hal_rcc.c **** #define MCO1_CLK_ENABLE()     __HAL_RCC_GPIOA_CLK_ENABLE()
ARM GAS  C:\Users\cinar\AppData\Local\Temp\ccnsnn81.s 			page 3


  89:Drivers/STM32H7xx_HAL_Driver/Src/stm32h7xx_hal_rcc.c **** #define MCO1_GPIO_PORT        GPIOA
  90:Drivers/STM32H7xx_HAL_Driver/Src/stm32h7xx_hal_rcc.c **** #define MCO1_PIN              GPIO_PIN_8
  91:Drivers/STM32H7xx_HAL_Driver/Src/stm32h7xx_hal_rcc.c **** 
  92:Drivers/STM32H7xx_HAL_Driver/Src/stm32h7xx_hal_rcc.c **** #define MCO2_CLK_ENABLE()      __HAL_RCC_GPIOC_CLK_ENABLE()
  93:Drivers/STM32H7xx_HAL_Driver/Src/stm32h7xx_hal_rcc.c **** #define MCO2_GPIO_PORT         GPIOC
  94:Drivers/STM32H7xx_HAL_Driver/Src/stm32h7xx_hal_rcc.c **** #define MCO2_PIN               GPIO_PIN_9
  95:Drivers/STM32H7xx_HAL_Driver/Src/stm32h7xx_hal_rcc.c **** 
  96:Drivers/STM32H7xx_HAL_Driver/Src/stm32h7xx_hal_rcc.c **** /**
  97:Drivers/STM32H7xx_HAL_Driver/Src/stm32h7xx_hal_rcc.c ****   * @}
  98:Drivers/STM32H7xx_HAL_Driver/Src/stm32h7xx_hal_rcc.c ****   */
  99:Drivers/STM32H7xx_HAL_Driver/Src/stm32h7xx_hal_rcc.c **** /* Private variables ---------------------------------------------------------*/
 100:Drivers/STM32H7xx_HAL_Driver/Src/stm32h7xx_hal_rcc.c **** /** @defgroup RCC_Private_Variables RCC Private Variables
 101:Drivers/STM32H7xx_HAL_Driver/Src/stm32h7xx_hal_rcc.c ****   * @{
 102:Drivers/STM32H7xx_HAL_Driver/Src/stm32h7xx_hal_rcc.c ****   */
 103:Drivers/STM32H7xx_HAL_Driver/Src/stm32h7xx_hal_rcc.c **** 
 104:Drivers/STM32H7xx_HAL_Driver/Src/stm32h7xx_hal_rcc.c **** /**
 105:Drivers/STM32H7xx_HAL_Driver/Src/stm32h7xx_hal_rcc.c ****   * @}
 106:Drivers/STM32H7xx_HAL_Driver/Src/stm32h7xx_hal_rcc.c ****   */
 107:Drivers/STM32H7xx_HAL_Driver/Src/stm32h7xx_hal_rcc.c **** /* Private function prototypes -----------------------------------------------*/
 108:Drivers/STM32H7xx_HAL_Driver/Src/stm32h7xx_hal_rcc.c **** /* Exported functions --------------------------------------------------------*/
 109:Drivers/STM32H7xx_HAL_Driver/Src/stm32h7xx_hal_rcc.c **** 
 110:Drivers/STM32H7xx_HAL_Driver/Src/stm32h7xx_hal_rcc.c **** /** @defgroup RCC_Exported_Functions RCC Exported Functions
 111:Drivers/STM32H7xx_HAL_Driver/Src/stm32h7xx_hal_rcc.c ****   * @{
 112:Drivers/STM32H7xx_HAL_Driver/Src/stm32h7xx_hal_rcc.c ****   */
 113:Drivers/STM32H7xx_HAL_Driver/Src/stm32h7xx_hal_rcc.c **** 
 114:Drivers/STM32H7xx_HAL_Driver/Src/stm32h7xx_hal_rcc.c **** /** @defgroup RCC_Exported_Functions_Group1 Initialization and de-initialization functions
 115:Drivers/STM32H7xx_HAL_Driver/Src/stm32h7xx_hal_rcc.c ****  *  @brief    Initialization and Configuration functions
 116:Drivers/STM32H7xx_HAL_Driver/Src/stm32h7xx_hal_rcc.c ****  *
 117:Drivers/STM32H7xx_HAL_Driver/Src/stm32h7xx_hal_rcc.c **** @verbatim
 118:Drivers/STM32H7xx_HAL_Driver/Src/stm32h7xx_hal_rcc.c ****  ===============================================================================
 119:Drivers/STM32H7xx_HAL_Driver/Src/stm32h7xx_hal_rcc.c ****            ##### Initialization and de-initialization functions #####
 120:Drivers/STM32H7xx_HAL_Driver/Src/stm32h7xx_hal_rcc.c ****  ===============================================================================
 121:Drivers/STM32H7xx_HAL_Driver/Src/stm32h7xx_hal_rcc.c ****     [..]
 122:Drivers/STM32H7xx_HAL_Driver/Src/stm32h7xx_hal_rcc.c ****       This section provides functions allowing to configure the internal/external oscillators
 123:Drivers/STM32H7xx_HAL_Driver/Src/stm32h7xx_hal_rcc.c ****       (HSE, HSI, LSE,CSI, LSI,HSI48, PLL, CSS and MCO) and the System buses clocks (SYSCLK, AHB3, A
 124:Drivers/STM32H7xx_HAL_Driver/Src/stm32h7xx_hal_rcc.c ****        AHB2,AHB4,APB3, APB1L, APB1H, APB2, and APB4).
 125:Drivers/STM32H7xx_HAL_Driver/Src/stm32h7xx_hal_rcc.c **** 
 126:Drivers/STM32H7xx_HAL_Driver/Src/stm32h7xx_hal_rcc.c ****     [..] Internal/external clock and PLL configuration
 127:Drivers/STM32H7xx_HAL_Driver/Src/stm32h7xx_hal_rcc.c ****          (#) HSI (high-speed internal), 64 MHz factory-trimmed RC used directly or through
 128:Drivers/STM32H7xx_HAL_Driver/Src/stm32h7xx_hal_rcc.c ****              the PLL as System clock source.
 129:Drivers/STM32H7xx_HAL_Driver/Src/stm32h7xx_hal_rcc.c ****          (#) CSI is a low-power RC oscillator which can be used directly as system clock, periphera
 130:Drivers/STM32H7xx_HAL_Driver/Src/stm32h7xx_hal_rcc.c ****              clock, or PLL input.But even with frequency calibration, is less accurate than an
 131:Drivers/STM32H7xx_HAL_Driver/Src/stm32h7xx_hal_rcc.c ****              external crystal oscillator or ceramic resonator.
 132:Drivers/STM32H7xx_HAL_Driver/Src/stm32h7xx_hal_rcc.c ****          (#) LSI (low-speed internal), 32 KHz low consumption RC used as IWDG and/or RTC
 133:Drivers/STM32H7xx_HAL_Driver/Src/stm32h7xx_hal_rcc.c ****              clock source.
 134:Drivers/STM32H7xx_HAL_Driver/Src/stm32h7xx_hal_rcc.c **** 
 135:Drivers/STM32H7xx_HAL_Driver/Src/stm32h7xx_hal_rcc.c ****          (#) HSE (high-speed external), 4 to 48 MHz crystal oscillator used directly or
 136:Drivers/STM32H7xx_HAL_Driver/Src/stm32h7xx_hal_rcc.c ****              through the PLL as System clock source. Can be used also as RTC clock source.
 137:Drivers/STM32H7xx_HAL_Driver/Src/stm32h7xx_hal_rcc.c **** 
 138:Drivers/STM32H7xx_HAL_Driver/Src/stm32h7xx_hal_rcc.c ****          (#) LSE (low-speed external), 32 KHz oscillator used as RTC clock source.
 139:Drivers/STM32H7xx_HAL_Driver/Src/stm32h7xx_hal_rcc.c **** 
 140:Drivers/STM32H7xx_HAL_Driver/Src/stm32h7xx_hal_rcc.c ****          (#) PLL , The RCC features three independent PLLs (clocked by HSI , HSE or CSI),
 141:Drivers/STM32H7xx_HAL_Driver/Src/stm32h7xx_hal_rcc.c ****              featuring three different output clocks and able  to work either in integer or Fractio
 142:Drivers/STM32H7xx_HAL_Driver/Src/stm32h7xx_hal_rcc.c ****            (++) A main PLL, PLL1, which is generally used to provide clocks to the CPU
 143:Drivers/STM32H7xx_HAL_Driver/Src/stm32h7xx_hal_rcc.c ****                 and to some peripherals.
 144:Drivers/STM32H7xx_HAL_Driver/Src/stm32h7xx_hal_rcc.c ****            (++) Two dedicated PLLs, PLL2 and PLL3, which are used to generate the kernel clock for 
 145:Drivers/STM32H7xx_HAL_Driver/Src/stm32h7xx_hal_rcc.c **** 
ARM GAS  C:\Users\cinar\AppData\Local\Temp\ccnsnn81.s 			page 4


 146:Drivers/STM32H7xx_HAL_Driver/Src/stm32h7xx_hal_rcc.c **** 
 147:Drivers/STM32H7xx_HAL_Driver/Src/stm32h7xx_hal_rcc.c ****          (#) CSS (Clock security system), once enabled and if a HSE clock failure occurs
 148:Drivers/STM32H7xx_HAL_Driver/Src/stm32h7xx_hal_rcc.c ****             (HSE used directly or through PLL as System clock source), the System clock
 149:Drivers/STM32H7xx_HAL_Driver/Src/stm32h7xx_hal_rcc.c ****              is automatically switched to HSI and an interrupt is generated if enabled.
 150:Drivers/STM32H7xx_HAL_Driver/Src/stm32h7xx_hal_rcc.c ****              The interrupt is linked to the Cortex-M NMI (Non-Mask-able Interrupt)
 151:Drivers/STM32H7xx_HAL_Driver/Src/stm32h7xx_hal_rcc.c ****              exception vector.
 152:Drivers/STM32H7xx_HAL_Driver/Src/stm32h7xx_hal_rcc.c **** 
 153:Drivers/STM32H7xx_HAL_Driver/Src/stm32h7xx_hal_rcc.c ****          (#) MCO1 (micro controller clock output), used to output HSI, LSE, HSE, PLL1(PLL1_Q)
 154:Drivers/STM32H7xx_HAL_Driver/Src/stm32h7xx_hal_rcc.c ****              or HSI48 clock (through a configurable pre-scaler) on PA8 pin.
 155:Drivers/STM32H7xx_HAL_Driver/Src/stm32h7xx_hal_rcc.c **** 
 156:Drivers/STM32H7xx_HAL_Driver/Src/stm32h7xx_hal_rcc.c ****          (#) MCO2 (micro controller clock output), used to output HSE, PLL2(PLL2_P), SYSCLK,
 157:Drivers/STM32H7xx_HAL_Driver/Src/stm32h7xx_hal_rcc.c ****              LSI, CSI, or PLL1(PLL1_P) clock (through a configurable pre-scaler) on PC9 pin.
 158:Drivers/STM32H7xx_HAL_Driver/Src/stm32h7xx_hal_rcc.c **** 
 159:Drivers/STM32H7xx_HAL_Driver/Src/stm32h7xx_hal_rcc.c ****     [..] System, AHB and APB buses clocks configuration
 160:Drivers/STM32H7xx_HAL_Driver/Src/stm32h7xx_hal_rcc.c ****          (#) Several clock sources can be used to drive the System clock (SYSCLK): CSI,HSI,
 161:Drivers/STM32H7xx_HAL_Driver/Src/stm32h7xx_hal_rcc.c ****              HSE and PLL.
 162:Drivers/STM32H7xx_HAL_Driver/Src/stm32h7xx_hal_rcc.c ****              The AHB clock (HCLK) is derived from System core clock through configurable
 163:Drivers/STM32H7xx_HAL_Driver/Src/stm32h7xx_hal_rcc.c ****              pre-scaler and used to clock the CPU, memory and peripherals mapped
 164:Drivers/STM32H7xx_HAL_Driver/Src/stm32h7xx_hal_rcc.c ****              on AHB and APB bus of the 3 Domains (D1, D2, D3)* through configurable pre-scalers
 165:Drivers/STM32H7xx_HAL_Driver/Src/stm32h7xx_hal_rcc.c ****              and used to clock the peripherals mapped on these buses. You can use
 166:Drivers/STM32H7xx_HAL_Driver/Src/stm32h7xx_hal_rcc.c ****              "HAL_RCC_GetSysClockFreq()" function to retrieve system clock frequency.
 167:Drivers/STM32H7xx_HAL_Driver/Src/stm32h7xx_hal_rcc.c **** 
 168:Drivers/STM32H7xx_HAL_Driver/Src/stm32h7xx_hal_rcc.c ****          -@- All the peripheral clocks are derived from the System clock (SYSCLK) except those
 169:Drivers/STM32H7xx_HAL_Driver/Src/stm32h7xx_hal_rcc.c ****              with dual clock domain where kernel source clock could be selected through
 170:Drivers/STM32H7xx_HAL_Driver/Src/stm32h7xx_hal_rcc.c ****              RCC_D1CCIPR,RCC_D2CCIP1R,RCC_D2CCIP2R and RCC_D3CCIPR registers.
 171:Drivers/STM32H7xx_HAL_Driver/Src/stm32h7xx_hal_rcc.c **** 
 172:Drivers/STM32H7xx_HAL_Driver/Src/stm32h7xx_hal_rcc.c ****      (*) : 2 Domains (CD and SRD) for stm32h7a3xx and stm32h7b3xx family lines.
 173:Drivers/STM32H7xx_HAL_Driver/Src/stm32h7xx_hal_rcc.c **** @endverbatim
 174:Drivers/STM32H7xx_HAL_Driver/Src/stm32h7xx_hal_rcc.c ****   * @{
 175:Drivers/STM32H7xx_HAL_Driver/Src/stm32h7xx_hal_rcc.c ****   */
 176:Drivers/STM32H7xx_HAL_Driver/Src/stm32h7xx_hal_rcc.c **** 
 177:Drivers/STM32H7xx_HAL_Driver/Src/stm32h7xx_hal_rcc.c **** /**
 178:Drivers/STM32H7xx_HAL_Driver/Src/stm32h7xx_hal_rcc.c ****   * @brief  Resets the RCC clock configuration to the default reset state.
 179:Drivers/STM32H7xx_HAL_Driver/Src/stm32h7xx_hal_rcc.c ****   * @note   The default reset state of the clock configuration is given below:
 180:Drivers/STM32H7xx_HAL_Driver/Src/stm32h7xx_hal_rcc.c ****   *            - HSI ON and used as system clock source
 181:Drivers/STM32H7xx_HAL_Driver/Src/stm32h7xx_hal_rcc.c ****   *            - HSE, PLL1, PLL2 and PLL3 OFF
 182:Drivers/STM32H7xx_HAL_Driver/Src/stm32h7xx_hal_rcc.c ****   *            - AHB, APB Bus pre-scaler set to 1.
 183:Drivers/STM32H7xx_HAL_Driver/Src/stm32h7xx_hal_rcc.c ****   *            - CSS, MCO1 and MCO2 OFF
 184:Drivers/STM32H7xx_HAL_Driver/Src/stm32h7xx_hal_rcc.c ****   *            - All interrupts disabled
 185:Drivers/STM32H7xx_HAL_Driver/Src/stm32h7xx_hal_rcc.c ****   * @note   This function doesn't modify the configuration of the
 186:Drivers/STM32H7xx_HAL_Driver/Src/stm32h7xx_hal_rcc.c ****   *            - Peripheral clocks
 187:Drivers/STM32H7xx_HAL_Driver/Src/stm32h7xx_hal_rcc.c ****   *            - LSI, LSE and RTC clocks
 188:Drivers/STM32H7xx_HAL_Driver/Src/stm32h7xx_hal_rcc.c ****   * @retval HAL status
 189:Drivers/STM32H7xx_HAL_Driver/Src/stm32h7xx_hal_rcc.c ****   */
 190:Drivers/STM32H7xx_HAL_Driver/Src/stm32h7xx_hal_rcc.c **** HAL_StatusTypeDef HAL_RCC_DeInit(void)
 191:Drivers/STM32H7xx_HAL_Driver/Src/stm32h7xx_hal_rcc.c **** {
  28              		.loc 1 191 1 view -0
  29              		.cfi_startproc
  30              		@ args = 0, pretend = 0, frame = 0
  31              		@ frame_needed = 0, uses_anonymous_args = 0
  32 0000 38B5     		push	{r3, r4, r5, lr}
  33              	.LCFI0:
  34              		.cfi_def_cfa_offset 16
  35              		.cfi_offset 3, -16
  36              		.cfi_offset 4, -12
  37              		.cfi_offset 5, -8
  38              		.cfi_offset 14, -4
ARM GAS  C:\Users\cinar\AppData\Local\Temp\ccnsnn81.s 			page 5


 192:Drivers/STM32H7xx_HAL_Driver/Src/stm32h7xx_hal_rcc.c ****   uint32_t tickstart;
  39              		.loc 1 192 3 view .LVU1
 193:Drivers/STM32H7xx_HAL_Driver/Src/stm32h7xx_hal_rcc.c **** 
 194:Drivers/STM32H7xx_HAL_Driver/Src/stm32h7xx_hal_rcc.c ****         /* Increasing the CPU frequency */
 195:Drivers/STM32H7xx_HAL_Driver/Src/stm32h7xx_hal_rcc.c ****   if(FLASH_LATENCY_DEFAULT  > __HAL_FLASH_GET_LATENCY())
  40              		.loc 1 195 3 view .LVU2
  41              		.loc 1 195 31 is_stmt 0 view .LVU3
  42 0002 684B     		ldr	r3, .L33
  43 0004 1B68     		ldr	r3, [r3]
  44 0006 03F00F03 		and	r3, r3, #15
  45              		.loc 1 195 5 view .LVU4
  46 000a 062B     		cmp	r3, #6
  47 000c 0CD8     		bhi	.L2
 196:Drivers/STM32H7xx_HAL_Driver/Src/stm32h7xx_hal_rcc.c ****   {
 197:Drivers/STM32H7xx_HAL_Driver/Src/stm32h7xx_hal_rcc.c ****     /* Program the new number of wait states to the LATENCY bits in the FLASH_ACR register */
 198:Drivers/STM32H7xx_HAL_Driver/Src/stm32h7xx_hal_rcc.c ****     __HAL_FLASH_SET_LATENCY(FLASH_LATENCY_DEFAULT);
  48              		.loc 1 198 5 is_stmt 1 view .LVU5
  49 000e 654A     		ldr	r2, .L33
  50 0010 1368     		ldr	r3, [r2]
  51 0012 23F00F03 		bic	r3, r3, #15
  52 0016 43F00703 		orr	r3, r3, #7
  53 001a 1360     		str	r3, [r2]
 199:Drivers/STM32H7xx_HAL_Driver/Src/stm32h7xx_hal_rcc.c **** 
 200:Drivers/STM32H7xx_HAL_Driver/Src/stm32h7xx_hal_rcc.c ****     /* Check that the new number of wait states is taken into account to access the Flash
 201:Drivers/STM32H7xx_HAL_Driver/Src/stm32h7xx_hal_rcc.c ****     memory by reading the FLASH_ACR register */
 202:Drivers/STM32H7xx_HAL_Driver/Src/stm32h7xx_hal_rcc.c ****     if(__HAL_FLASH_GET_LATENCY() != FLASH_LATENCY_DEFAULT)
  54              		.loc 1 202 5 view .LVU6
  55              		.loc 1 202 8 is_stmt 0 view .LVU7
  56 001c 1368     		ldr	r3, [r2]
  57 001e 03F00F03 		and	r3, r3, #15
  58              		.loc 1 202 7 view .LVU8
  59 0022 072B     		cmp	r3, #7
  60 0024 40F0BA80 		bne	.L16
  61              	.L2:
 203:Drivers/STM32H7xx_HAL_Driver/Src/stm32h7xx_hal_rcc.c ****     {
 204:Drivers/STM32H7xx_HAL_Driver/Src/stm32h7xx_hal_rcc.c ****       return HAL_ERROR;
 205:Drivers/STM32H7xx_HAL_Driver/Src/stm32h7xx_hal_rcc.c ****     }
 206:Drivers/STM32H7xx_HAL_Driver/Src/stm32h7xx_hal_rcc.c **** 
 207:Drivers/STM32H7xx_HAL_Driver/Src/stm32h7xx_hal_rcc.c ****   }
 208:Drivers/STM32H7xx_HAL_Driver/Src/stm32h7xx_hal_rcc.c **** 
 209:Drivers/STM32H7xx_HAL_Driver/Src/stm32h7xx_hal_rcc.c **** 
 210:Drivers/STM32H7xx_HAL_Driver/Src/stm32h7xx_hal_rcc.c ****   /* Get Start Tick */
 211:Drivers/STM32H7xx_HAL_Driver/Src/stm32h7xx_hal_rcc.c ****   tickstart = HAL_GetTick();
  62              		.loc 1 211 3 is_stmt 1 view .LVU9
  63              		.loc 1 211 15 is_stmt 0 view .LVU10
  64 0028 FFF7FEFF 		bl	HAL_GetTick
  65              	.LVL0:
  66 002c 0446     		mov	r4, r0
  67              	.LVL1:
 212:Drivers/STM32H7xx_HAL_Driver/Src/stm32h7xx_hal_rcc.c **** 
 213:Drivers/STM32H7xx_HAL_Driver/Src/stm32h7xx_hal_rcc.c ****   /* Set HSION bit */
 214:Drivers/STM32H7xx_HAL_Driver/Src/stm32h7xx_hal_rcc.c ****   SET_BIT(RCC->CR, RCC_CR_HSION);
  68              		.loc 1 214 3 is_stmt 1 view .LVU11
  69 002e 5E4A     		ldr	r2, .L33+4
  70 0030 1368     		ldr	r3, [r2]
  71 0032 43F00103 		orr	r3, r3, #1
  72 0036 1360     		str	r3, [r2]
ARM GAS  C:\Users\cinar\AppData\Local\Temp\ccnsnn81.s 			page 6


 215:Drivers/STM32H7xx_HAL_Driver/Src/stm32h7xx_hal_rcc.c **** 
 216:Drivers/STM32H7xx_HAL_Driver/Src/stm32h7xx_hal_rcc.c ****   /* Wait till HSI is ready */
 217:Drivers/STM32H7xx_HAL_Driver/Src/stm32h7xx_hal_rcc.c ****   while (READ_BIT(RCC->CR, RCC_CR_HSIRDY) == 0U)
  73              		.loc 1 217 3 view .LVU12
  74              	.LVL2:
  75              	.L4:
  76              		.loc 1 217 9 view .LVU13
  77              		.loc 1 217 10 is_stmt 0 view .LVU14
  78 0038 5B4B     		ldr	r3, .L33+4
  79 003a 1B68     		ldr	r3, [r3]
  80              		.loc 1 217 9 view .LVU15
  81 003c 13F0040F 		tst	r3, #4
  82 0040 06D1     		bne	.L26
 218:Drivers/STM32H7xx_HAL_Driver/Src/stm32h7xx_hal_rcc.c ****   {
 219:Drivers/STM32H7xx_HAL_Driver/Src/stm32h7xx_hal_rcc.c ****     if ((HAL_GetTick() - tickstart) > HSI_TIMEOUT_VALUE)
  83              		.loc 1 219 5 is_stmt 1 view .LVU16
  84              		.loc 1 219 10 is_stmt 0 view .LVU17
  85 0042 FFF7FEFF 		bl	HAL_GetTick
  86              	.LVL3:
  87              		.loc 1 219 24 view .LVU18
  88 0046 001B     		subs	r0, r0, r4
  89              		.loc 1 219 8 view .LVU19
  90 0048 0228     		cmp	r0, #2
  91 004a F5D9     		bls	.L4
 220:Drivers/STM32H7xx_HAL_Driver/Src/stm32h7xx_hal_rcc.c ****     {
 221:Drivers/STM32H7xx_HAL_Driver/Src/stm32h7xx_hal_rcc.c ****       return HAL_TIMEOUT;
  92              		.loc 1 221 14 view .LVU20
  93 004c 0324     		movs	r4, #3
  94              	.LVL4:
  95              		.loc 1 221 14 view .LVU21
  96 004e A6E0     		b	.L3
  97              	.LVL5:
  98              	.L26:
 222:Drivers/STM32H7xx_HAL_Driver/Src/stm32h7xx_hal_rcc.c ****     }
 223:Drivers/STM32H7xx_HAL_Driver/Src/stm32h7xx_hal_rcc.c ****   }
 224:Drivers/STM32H7xx_HAL_Driver/Src/stm32h7xx_hal_rcc.c **** 
 225:Drivers/STM32H7xx_HAL_Driver/Src/stm32h7xx_hal_rcc.c ****   /* Set HSITRIM[6:0] bits to the reset value */
 226:Drivers/STM32H7xx_HAL_Driver/Src/stm32h7xx_hal_rcc.c ****   SET_BIT(RCC->HSICFGR, RCC_HSICFGR_HSITRIM_6);
  99              		.loc 1 226 3 is_stmt 1 view .LVU22
 100 0050 554B     		ldr	r3, .L33+4
 101 0052 5A68     		ldr	r2, [r3, #4]
 102 0054 42F08042 		orr	r2, r2, #1073741824
 103 0058 5A60     		str	r2, [r3, #4]
 227:Drivers/STM32H7xx_HAL_Driver/Src/stm32h7xx_hal_rcc.c **** 
 228:Drivers/STM32H7xx_HAL_Driver/Src/stm32h7xx_hal_rcc.c ****   /* Reset CFGR register */
 229:Drivers/STM32H7xx_HAL_Driver/Src/stm32h7xx_hal_rcc.c ****   CLEAR_REG(RCC->CFGR);
 104              		.loc 1 229 3 view .LVU23
 105 005a 0022     		movs	r2, #0
 106 005c 1A61     		str	r2, [r3, #16]
 230:Drivers/STM32H7xx_HAL_Driver/Src/stm32h7xx_hal_rcc.c **** 
 231:Drivers/STM32H7xx_HAL_Driver/Src/stm32h7xx_hal_rcc.c ****   /* Update the SystemCoreClock and SystemD2Clock global variables */
 232:Drivers/STM32H7xx_HAL_Driver/Src/stm32h7xx_hal_rcc.c ****   SystemCoreClock = HSI_VALUE;
 107              		.loc 1 232 3 view .LVU24
 108              		.loc 1 232 19 is_stmt 0 view .LVU25
 109 005e 534B     		ldr	r3, .L33+8
 110 0060 534A     		ldr	r2, .L33+12
 111 0062 1360     		str	r3, [r2]
ARM GAS  C:\Users\cinar\AppData\Local\Temp\ccnsnn81.s 			page 7


 233:Drivers/STM32H7xx_HAL_Driver/Src/stm32h7xx_hal_rcc.c ****   SystemD2Clock = HSI_VALUE;
 112              		.loc 1 233 3 is_stmt 1 view .LVU26
 113              		.loc 1 233 17 is_stmt 0 view .LVU27
 114 0064 534A     		ldr	r2, .L33+16
 115 0066 1360     		str	r3, [r2]
 234:Drivers/STM32H7xx_HAL_Driver/Src/stm32h7xx_hal_rcc.c **** 
 235:Drivers/STM32H7xx_HAL_Driver/Src/stm32h7xx_hal_rcc.c ****   /* Adapt Systick interrupt period */
 236:Drivers/STM32H7xx_HAL_Driver/Src/stm32h7xx_hal_rcc.c ****   if(HAL_InitTick(uwTickPrio) != HAL_OK)
 116              		.loc 1 236 3 is_stmt 1 view .LVU28
 117              		.loc 1 236 6 is_stmt 0 view .LVU29
 118 0068 534B     		ldr	r3, .L33+20
 119 006a 1868     		ldr	r0, [r3]
 120 006c FFF7FEFF 		bl	HAL_InitTick
 121              	.LVL6:
 122              		.loc 1 236 5 view .LVU30
 123 0070 0446     		mov	r4, r0
 124              	.LVL7:
 125              		.loc 1 236 5 view .LVU31
 126 0072 08B1     		cbz	r0, .L27
 237:Drivers/STM32H7xx_HAL_Driver/Src/stm32h7xx_hal_rcc.c ****   {
 238:Drivers/STM32H7xx_HAL_Driver/Src/stm32h7xx_hal_rcc.c ****     return HAL_ERROR;
 127              		.loc 1 238 12 view .LVU32
 128 0074 0124     		movs	r4, #1
 129 0076 92E0     		b	.L3
 130              	.L27:
 239:Drivers/STM32H7xx_HAL_Driver/Src/stm32h7xx_hal_rcc.c ****   }
 240:Drivers/STM32H7xx_HAL_Driver/Src/stm32h7xx_hal_rcc.c **** 
 241:Drivers/STM32H7xx_HAL_Driver/Src/stm32h7xx_hal_rcc.c ****   /* Get Start Tick */
 242:Drivers/STM32H7xx_HAL_Driver/Src/stm32h7xx_hal_rcc.c ****   tickstart = HAL_GetTick();
 131              		.loc 1 242 3 is_stmt 1 view .LVU33
 132              		.loc 1 242 15 is_stmt 0 view .LVU34
 133 0078 FFF7FEFF 		bl	HAL_GetTick
 134              	.LVL8:
 135 007c 0546     		mov	r5, r0
 136              	.LVL9:
 243:Drivers/STM32H7xx_HAL_Driver/Src/stm32h7xx_hal_rcc.c **** 
 244:Drivers/STM32H7xx_HAL_Driver/Src/stm32h7xx_hal_rcc.c ****   /* Wait till clock switch is ready */
 245:Drivers/STM32H7xx_HAL_Driver/Src/stm32h7xx_hal_rcc.c ****   while (READ_BIT(RCC->CFGR, RCC_CFGR_SWS) != 0U)
 137              		.loc 1 245 3 is_stmt 1 view .LVU35
 138              	.L6:
 139              		.loc 1 245 9 view .LVU36
 140              		.loc 1 245 10 is_stmt 0 view .LVU37
 141 007e 4A4B     		ldr	r3, .L33+4
 142 0080 1B69     		ldr	r3, [r3, #16]
 143              		.loc 1 245 9 view .LVU38
 144 0082 13F0380F 		tst	r3, #56
 145 0086 08D0     		beq	.L28
 246:Drivers/STM32H7xx_HAL_Driver/Src/stm32h7xx_hal_rcc.c ****   {
 247:Drivers/STM32H7xx_HAL_Driver/Src/stm32h7xx_hal_rcc.c ****     if ((HAL_GetTick() - tickstart) > CLOCKSWITCH_TIMEOUT_VALUE)
 146              		.loc 1 247 5 is_stmt 1 view .LVU39
 147              		.loc 1 247 10 is_stmt 0 view .LVU40
 148 0088 FFF7FEFF 		bl	HAL_GetTick
 149              	.LVL10:
 150              		.loc 1 247 24 view .LVU41
 151 008c 401B     		subs	r0, r0, r5
 152              		.loc 1 247 8 view .LVU42
 153 008e 41F28833 		movw	r3, #5000
ARM GAS  C:\Users\cinar\AppData\Local\Temp\ccnsnn81.s 			page 8


 154 0092 9842     		cmp	r0, r3
 155 0094 F3D9     		bls	.L6
 248:Drivers/STM32H7xx_HAL_Driver/Src/stm32h7xx_hal_rcc.c ****     {
 249:Drivers/STM32H7xx_HAL_Driver/Src/stm32h7xx_hal_rcc.c ****       return HAL_TIMEOUT;
 156              		.loc 1 249 14 view .LVU43
 157 0096 0324     		movs	r4, #3
 158 0098 81E0     		b	.L3
 159              	.L28:
 250:Drivers/STM32H7xx_HAL_Driver/Src/stm32h7xx_hal_rcc.c ****     }
 251:Drivers/STM32H7xx_HAL_Driver/Src/stm32h7xx_hal_rcc.c ****   }
 252:Drivers/STM32H7xx_HAL_Driver/Src/stm32h7xx_hal_rcc.c **** 
 253:Drivers/STM32H7xx_HAL_Driver/Src/stm32h7xx_hal_rcc.c ****   /* Get Start Tick */
 254:Drivers/STM32H7xx_HAL_Driver/Src/stm32h7xx_hal_rcc.c ****   tickstart = HAL_GetTick();
 160              		.loc 1 254 3 is_stmt 1 view .LVU44
 161              		.loc 1 254 15 is_stmt 0 view .LVU45
 162 009a FFF7FEFF 		bl	HAL_GetTick
 163              	.LVL11:
 164 009e 0546     		mov	r5, r0
 165              	.LVL12:
 255:Drivers/STM32H7xx_HAL_Driver/Src/stm32h7xx_hal_rcc.c **** 
 256:Drivers/STM32H7xx_HAL_Driver/Src/stm32h7xx_hal_rcc.c ****   /* Reset CSION, CSIKERON, HSEON, HSI48ON, HSECSSON, HSIDIV bits */
 257:Drivers/STM32H7xx_HAL_Driver/Src/stm32h7xx_hal_rcc.c ****   CLEAR_BIT(RCC->CR, RCC_CR_HSEON | RCC_CR_HSIKERON| RCC_CR_HSIDIV| RCC_CR_HSIDIVF| RCC_CR_CSION | 
 166              		.loc 1 257 3 is_stmt 1 view .LVU46
 167 00a0 414A     		ldr	r2, .L33+4
 168 00a2 1168     		ldr	r1, [r2]
 169 00a4 454B     		ldr	r3, .L33+24
 170 00a6 0B40     		ands	r3, r3, r1
 171 00a8 1360     		str	r3, [r2]
 258:Drivers/STM32H7xx_HAL_Driver/Src/stm32h7xx_hal_rcc.c ****   | RCC_CR_HSI48ON | RCC_CR_CSSHSEON);
 259:Drivers/STM32H7xx_HAL_Driver/Src/stm32h7xx_hal_rcc.c **** 
 260:Drivers/STM32H7xx_HAL_Driver/Src/stm32h7xx_hal_rcc.c ****   /* Wait till HSE is disabled */
 261:Drivers/STM32H7xx_HAL_Driver/Src/stm32h7xx_hal_rcc.c ****   while (READ_BIT(RCC->CR, RCC_CR_HSERDY) != 0U)
 172              		.loc 1 261 3 view .LVU47
 173              	.LVL13:
 174              	.L8:
 175              		.loc 1 261 9 view .LVU48
 176              		.loc 1 261 10 is_stmt 0 view .LVU49
 177 00aa 3F4B     		ldr	r3, .L33+4
 178 00ac 1B68     		ldr	r3, [r3]
 179              		.loc 1 261 9 view .LVU50
 180 00ae 13F4003F 		tst	r3, #131072
 181 00b2 06D0     		beq	.L29
 262:Drivers/STM32H7xx_HAL_Driver/Src/stm32h7xx_hal_rcc.c ****   {
 263:Drivers/STM32H7xx_HAL_Driver/Src/stm32h7xx_hal_rcc.c ****     if ((HAL_GetTick() - tickstart) > HSE_TIMEOUT_VALUE)
 182              		.loc 1 263 5 is_stmt 1 view .LVU51
 183              		.loc 1 263 10 is_stmt 0 view .LVU52
 184 00b4 FFF7FEFF 		bl	HAL_GetTick
 185              	.LVL14:
 186              		.loc 1 263 24 view .LVU53
 187 00b8 401B     		subs	r0, r0, r5
 188              		.loc 1 263 8 view .LVU54
 189 00ba 6428     		cmp	r0, #100
 190 00bc F5D9     		bls	.L8
 264:Drivers/STM32H7xx_HAL_Driver/Src/stm32h7xx_hal_rcc.c ****     {
 265:Drivers/STM32H7xx_HAL_Driver/Src/stm32h7xx_hal_rcc.c ****       return HAL_TIMEOUT;
 191              		.loc 1 265 14 view .LVU55
 192 00be 0324     		movs	r4, #3
ARM GAS  C:\Users\cinar\AppData\Local\Temp\ccnsnn81.s 			page 9


 193 00c0 6DE0     		b	.L3
 194              	.L29:
 266:Drivers/STM32H7xx_HAL_Driver/Src/stm32h7xx_hal_rcc.c ****     }
 267:Drivers/STM32H7xx_HAL_Driver/Src/stm32h7xx_hal_rcc.c ****   }
 268:Drivers/STM32H7xx_HAL_Driver/Src/stm32h7xx_hal_rcc.c **** 
 269:Drivers/STM32H7xx_HAL_Driver/Src/stm32h7xx_hal_rcc.c ****   /* Get Start Tick */
 270:Drivers/STM32H7xx_HAL_Driver/Src/stm32h7xx_hal_rcc.c ****   tickstart = HAL_GetTick();
 195              		.loc 1 270 3 is_stmt 1 view .LVU56
 196              		.loc 1 270 15 is_stmt 0 view .LVU57
 197 00c2 FFF7FEFF 		bl	HAL_GetTick
 198              	.LVL15:
 199 00c6 0546     		mov	r5, r0
 200              	.LVL16:
 271:Drivers/STM32H7xx_HAL_Driver/Src/stm32h7xx_hal_rcc.c **** 
 272:Drivers/STM32H7xx_HAL_Driver/Src/stm32h7xx_hal_rcc.c ****   /* Clear PLLON bit */
 273:Drivers/STM32H7xx_HAL_Driver/Src/stm32h7xx_hal_rcc.c ****   CLEAR_BIT(RCC->CR, RCC_CR_PLL1ON);
 201              		.loc 1 273 3 is_stmt 1 view .LVU58
 202 00c8 374A     		ldr	r2, .L33+4
 203 00ca 1368     		ldr	r3, [r2]
 204 00cc 23F08073 		bic	r3, r3, #16777216
 205 00d0 1360     		str	r3, [r2]
 274:Drivers/STM32H7xx_HAL_Driver/Src/stm32h7xx_hal_rcc.c **** 
 275:Drivers/STM32H7xx_HAL_Driver/Src/stm32h7xx_hal_rcc.c ****   /* Wait till PLL is disabled */
 276:Drivers/STM32H7xx_HAL_Driver/Src/stm32h7xx_hal_rcc.c ****   while (READ_BIT(RCC->CR, RCC_CR_PLL1RDY) != 0U)
 206              		.loc 1 276 3 view .LVU59
 207              	.LVL17:
 208              	.L10:
 209              		.loc 1 276 9 view .LVU60
 210              		.loc 1 276 10 is_stmt 0 view .LVU61
 211 00d2 354B     		ldr	r3, .L33+4
 212 00d4 1B68     		ldr	r3, [r3]
 213              		.loc 1 276 9 view .LVU62
 214 00d6 13F0007F 		tst	r3, #33554432
 215 00da 06D0     		beq	.L30
 277:Drivers/STM32H7xx_HAL_Driver/Src/stm32h7xx_hal_rcc.c ****   {
 278:Drivers/STM32H7xx_HAL_Driver/Src/stm32h7xx_hal_rcc.c ****     if ((HAL_GetTick() - tickstart) > PLL_TIMEOUT_VALUE)
 216              		.loc 1 278 5 is_stmt 1 view .LVU63
 217              		.loc 1 278 10 is_stmt 0 view .LVU64
 218 00dc FFF7FEFF 		bl	HAL_GetTick
 219              	.LVL18:
 220              		.loc 1 278 24 view .LVU65
 221 00e0 401B     		subs	r0, r0, r5
 222              		.loc 1 278 8 view .LVU66
 223 00e2 0228     		cmp	r0, #2
 224 00e4 F5D9     		bls	.L10
 279:Drivers/STM32H7xx_HAL_Driver/Src/stm32h7xx_hal_rcc.c ****     {
 280:Drivers/STM32H7xx_HAL_Driver/Src/stm32h7xx_hal_rcc.c ****       return HAL_TIMEOUT;
 225              		.loc 1 280 14 view .LVU67
 226 00e6 0324     		movs	r4, #3
 227 00e8 59E0     		b	.L3
 228              	.L30:
 281:Drivers/STM32H7xx_HAL_Driver/Src/stm32h7xx_hal_rcc.c ****     }
 282:Drivers/STM32H7xx_HAL_Driver/Src/stm32h7xx_hal_rcc.c ****   }
 283:Drivers/STM32H7xx_HAL_Driver/Src/stm32h7xx_hal_rcc.c **** 
 284:Drivers/STM32H7xx_HAL_Driver/Src/stm32h7xx_hal_rcc.c ****   /* Get Start Tick */
 285:Drivers/STM32H7xx_HAL_Driver/Src/stm32h7xx_hal_rcc.c ****   tickstart = HAL_GetTick();
 229              		.loc 1 285 3 is_stmt 1 view .LVU68
ARM GAS  C:\Users\cinar\AppData\Local\Temp\ccnsnn81.s 			page 10


 230              		.loc 1 285 15 is_stmt 0 view .LVU69
 231 00ea FFF7FEFF 		bl	HAL_GetTick
 232              	.LVL19:
 233 00ee 0546     		mov	r5, r0
 234              	.LVL20:
 286:Drivers/STM32H7xx_HAL_Driver/Src/stm32h7xx_hal_rcc.c **** 
 287:Drivers/STM32H7xx_HAL_Driver/Src/stm32h7xx_hal_rcc.c ****   /* Reset PLL2ON bit */
 288:Drivers/STM32H7xx_HAL_Driver/Src/stm32h7xx_hal_rcc.c ****   CLEAR_BIT(RCC->CR, RCC_CR_PLL2ON);
 235              		.loc 1 288 3 is_stmt 1 view .LVU70
 236 00f0 2D4A     		ldr	r2, .L33+4
 237 00f2 1368     		ldr	r3, [r2]
 238 00f4 23F08063 		bic	r3, r3, #67108864
 239 00f8 1360     		str	r3, [r2]
 289:Drivers/STM32H7xx_HAL_Driver/Src/stm32h7xx_hal_rcc.c **** 
 290:Drivers/STM32H7xx_HAL_Driver/Src/stm32h7xx_hal_rcc.c ****   /* Wait till PLL2 is disabled */
 291:Drivers/STM32H7xx_HAL_Driver/Src/stm32h7xx_hal_rcc.c ****   while (READ_BIT(RCC->CR, RCC_CR_PLL2RDY) != 0U)
 240              		.loc 1 291 3 view .LVU71
 241              	.LVL21:
 242              	.L12:
 243              		.loc 1 291 9 view .LVU72
 244              		.loc 1 291 10 is_stmt 0 view .LVU73
 245 00fa 2B4B     		ldr	r3, .L33+4
 246 00fc 1B68     		ldr	r3, [r3]
 247              		.loc 1 291 9 view .LVU74
 248 00fe 13F0006F 		tst	r3, #134217728
 249 0102 06D0     		beq	.L31
 292:Drivers/STM32H7xx_HAL_Driver/Src/stm32h7xx_hal_rcc.c ****   {
 293:Drivers/STM32H7xx_HAL_Driver/Src/stm32h7xx_hal_rcc.c ****     if ((HAL_GetTick() - tickstart) > PLL_TIMEOUT_VALUE)
 250              		.loc 1 293 5 is_stmt 1 view .LVU75
 251              		.loc 1 293 10 is_stmt 0 view .LVU76
 252 0104 FFF7FEFF 		bl	HAL_GetTick
 253              	.LVL22:
 254              		.loc 1 293 24 view .LVU77
 255 0108 401B     		subs	r0, r0, r5
 256              		.loc 1 293 8 view .LVU78
 257 010a 0228     		cmp	r0, #2
 258 010c F5D9     		bls	.L12
 294:Drivers/STM32H7xx_HAL_Driver/Src/stm32h7xx_hal_rcc.c ****     {
 295:Drivers/STM32H7xx_HAL_Driver/Src/stm32h7xx_hal_rcc.c ****       return HAL_TIMEOUT;
 259              		.loc 1 295 14 view .LVU79
 260 010e 0324     		movs	r4, #3
 261 0110 45E0     		b	.L3
 262              	.L31:
 296:Drivers/STM32H7xx_HAL_Driver/Src/stm32h7xx_hal_rcc.c ****     }
 297:Drivers/STM32H7xx_HAL_Driver/Src/stm32h7xx_hal_rcc.c ****   }
 298:Drivers/STM32H7xx_HAL_Driver/Src/stm32h7xx_hal_rcc.c **** 
 299:Drivers/STM32H7xx_HAL_Driver/Src/stm32h7xx_hal_rcc.c ****   /* Get Start Tick */
 300:Drivers/STM32H7xx_HAL_Driver/Src/stm32h7xx_hal_rcc.c ****   tickstart = HAL_GetTick();
 263              		.loc 1 300 3 is_stmt 1 view .LVU80
 264              		.loc 1 300 15 is_stmt 0 view .LVU81
 265 0112 FFF7FEFF 		bl	HAL_GetTick
 266              	.LVL23:
 267 0116 0546     		mov	r5, r0
 268              	.LVL24:
 301:Drivers/STM32H7xx_HAL_Driver/Src/stm32h7xx_hal_rcc.c **** 
 302:Drivers/STM32H7xx_HAL_Driver/Src/stm32h7xx_hal_rcc.c ****   /* Reset PLL3 bit */
 303:Drivers/STM32H7xx_HAL_Driver/Src/stm32h7xx_hal_rcc.c ****   CLEAR_BIT(RCC->CR, RCC_CR_PLL3ON);
ARM GAS  C:\Users\cinar\AppData\Local\Temp\ccnsnn81.s 			page 11


 269              		.loc 1 303 3 is_stmt 1 view .LVU82
 270 0118 234A     		ldr	r2, .L33+4
 271 011a 1368     		ldr	r3, [r2]
 272 011c 23F08053 		bic	r3, r3, #268435456
 273 0120 1360     		str	r3, [r2]
 304:Drivers/STM32H7xx_HAL_Driver/Src/stm32h7xx_hal_rcc.c **** 
 305:Drivers/STM32H7xx_HAL_Driver/Src/stm32h7xx_hal_rcc.c ****   /* Wait till PLL3 is disabled */
 306:Drivers/STM32H7xx_HAL_Driver/Src/stm32h7xx_hal_rcc.c ****   while (READ_BIT(RCC->CR, RCC_CR_PLL3RDY) != 0U)
 274              		.loc 1 306 3 view .LVU83
 275              	.LVL25:
 276              	.L14:
 277              		.loc 1 306 9 view .LVU84
 278              		.loc 1 306 10 is_stmt 0 view .LVU85
 279 0122 214B     		ldr	r3, .L33+4
 280 0124 1B68     		ldr	r3, [r3]
 281              		.loc 1 306 9 view .LVU86
 282 0126 13F0005F 		tst	r3, #536870912
 283 012a 06D0     		beq	.L32
 307:Drivers/STM32H7xx_HAL_Driver/Src/stm32h7xx_hal_rcc.c ****   {
 308:Drivers/STM32H7xx_HAL_Driver/Src/stm32h7xx_hal_rcc.c ****     if ((HAL_GetTick() - tickstart) > PLL_TIMEOUT_VALUE)
 284              		.loc 1 308 5 is_stmt 1 view .LVU87
 285              		.loc 1 308 10 is_stmt 0 view .LVU88
 286 012c FFF7FEFF 		bl	HAL_GetTick
 287              	.LVL26:
 288              		.loc 1 308 24 view .LVU89
 289 0130 401B     		subs	r0, r0, r5
 290              		.loc 1 308 8 view .LVU90
 291 0132 0228     		cmp	r0, #2
 292 0134 F5D9     		bls	.L14
 309:Drivers/STM32H7xx_HAL_Driver/Src/stm32h7xx_hal_rcc.c ****     {
 310:Drivers/STM32H7xx_HAL_Driver/Src/stm32h7xx_hal_rcc.c ****       return HAL_TIMEOUT;
 293              		.loc 1 310 14 view .LVU91
 294 0136 0324     		movs	r4, #3
 295 0138 31E0     		b	.L3
 296              	.L32:
 311:Drivers/STM32H7xx_HAL_Driver/Src/stm32h7xx_hal_rcc.c ****     }
 312:Drivers/STM32H7xx_HAL_Driver/Src/stm32h7xx_hal_rcc.c ****   }
 313:Drivers/STM32H7xx_HAL_Driver/Src/stm32h7xx_hal_rcc.c **** 
 314:Drivers/STM32H7xx_HAL_Driver/Src/stm32h7xx_hal_rcc.c **** #if defined(RCC_D1CFGR_HPRE)
 315:Drivers/STM32H7xx_HAL_Driver/Src/stm32h7xx_hal_rcc.c ****   /* Reset D1CFGR register */
 316:Drivers/STM32H7xx_HAL_Driver/Src/stm32h7xx_hal_rcc.c ****   CLEAR_REG(RCC->D1CFGR);
 297              		.loc 1 316 3 is_stmt 1 view .LVU92
 298 013a 1B4B     		ldr	r3, .L33+4
 299 013c 0022     		movs	r2, #0
 300 013e 9A61     		str	r2, [r3, #24]
 317:Drivers/STM32H7xx_HAL_Driver/Src/stm32h7xx_hal_rcc.c **** 
 318:Drivers/STM32H7xx_HAL_Driver/Src/stm32h7xx_hal_rcc.c ****   /* Reset D2CFGR register */
 319:Drivers/STM32H7xx_HAL_Driver/Src/stm32h7xx_hal_rcc.c ****   CLEAR_REG(RCC->D2CFGR);
 301              		.loc 1 319 3 view .LVU93
 302 0140 DA61     		str	r2, [r3, #28]
 320:Drivers/STM32H7xx_HAL_Driver/Src/stm32h7xx_hal_rcc.c **** 
 321:Drivers/STM32H7xx_HAL_Driver/Src/stm32h7xx_hal_rcc.c ****   /* Reset D3CFGR register */
 322:Drivers/STM32H7xx_HAL_Driver/Src/stm32h7xx_hal_rcc.c ****   CLEAR_REG(RCC->D3CFGR);
 303              		.loc 1 322 3 view .LVU94
 304 0142 1A62     		str	r2, [r3, #32]
 323:Drivers/STM32H7xx_HAL_Driver/Src/stm32h7xx_hal_rcc.c **** #else
 324:Drivers/STM32H7xx_HAL_Driver/Src/stm32h7xx_hal_rcc.c ****   /* Reset CDCFGR1 register */
ARM GAS  C:\Users\cinar\AppData\Local\Temp\ccnsnn81.s 			page 12


 325:Drivers/STM32H7xx_HAL_Driver/Src/stm32h7xx_hal_rcc.c ****   CLEAR_REG(RCC->CDCFGR1);
 326:Drivers/STM32H7xx_HAL_Driver/Src/stm32h7xx_hal_rcc.c **** 
 327:Drivers/STM32H7xx_HAL_Driver/Src/stm32h7xx_hal_rcc.c ****   /* Reset CDCFGR2 register */
 328:Drivers/STM32H7xx_HAL_Driver/Src/stm32h7xx_hal_rcc.c ****   CLEAR_REG(RCC->CDCFGR2);
 329:Drivers/STM32H7xx_HAL_Driver/Src/stm32h7xx_hal_rcc.c **** 
 330:Drivers/STM32H7xx_HAL_Driver/Src/stm32h7xx_hal_rcc.c ****   /* Reset SRDCFGR register */
 331:Drivers/STM32H7xx_HAL_Driver/Src/stm32h7xx_hal_rcc.c ****   CLEAR_REG(RCC->SRDCFGR);
 332:Drivers/STM32H7xx_HAL_Driver/Src/stm32h7xx_hal_rcc.c **** #endif
 333:Drivers/STM32H7xx_HAL_Driver/Src/stm32h7xx_hal_rcc.c **** 
 334:Drivers/STM32H7xx_HAL_Driver/Src/stm32h7xx_hal_rcc.c ****   /* Reset PLLCKSELR register to default value */
 335:Drivers/STM32H7xx_HAL_Driver/Src/stm32h7xx_hal_rcc.c ****   RCC->PLLCKSELR= RCC_PLLCKSELR_DIVM1_5|RCC_PLLCKSELR_DIVM2_5|RCC_PLLCKSELR_DIVM3_5;
 305              		.loc 1 335 3 view .LVU95
 306              		.loc 1 335 17 is_stmt 0 view .LVU96
 307 0144 1E49     		ldr	r1, .L33+28
 308 0146 9962     		str	r1, [r3, #40]
 336:Drivers/STM32H7xx_HAL_Driver/Src/stm32h7xx_hal_rcc.c **** 
 337:Drivers/STM32H7xx_HAL_Driver/Src/stm32h7xx_hal_rcc.c ****   /* Reset PLLCFGR register to default value */
 338:Drivers/STM32H7xx_HAL_Driver/Src/stm32h7xx_hal_rcc.c ****   WRITE_REG(RCC->PLLCFGR, 0x01FF0000U);
 309              		.loc 1 338 3 is_stmt 1 view .LVU97
 310 0148 1E49     		ldr	r1, .L33+32
 311 014a D962     		str	r1, [r3, #44]
 339:Drivers/STM32H7xx_HAL_Driver/Src/stm32h7xx_hal_rcc.c **** 
 340:Drivers/STM32H7xx_HAL_Driver/Src/stm32h7xx_hal_rcc.c ****   /* Reset PLL1DIVR register to default value */
 341:Drivers/STM32H7xx_HAL_Driver/Src/stm32h7xx_hal_rcc.c ****   WRITE_REG(RCC->PLL1DIVR,0x01010280U);
 312              		.loc 1 341 3 view .LVU98
 313 014c 1E49     		ldr	r1, .L33+36
 314 014e 1963     		str	r1, [r3, #48]
 342:Drivers/STM32H7xx_HAL_Driver/Src/stm32h7xx_hal_rcc.c **** 
 343:Drivers/STM32H7xx_HAL_Driver/Src/stm32h7xx_hal_rcc.c ****   /* Reset PLL1FRACR register */
 344:Drivers/STM32H7xx_HAL_Driver/Src/stm32h7xx_hal_rcc.c ****   CLEAR_REG(RCC->PLL1FRACR);
 315              		.loc 1 344 3 view .LVU99
 316 0150 5A63     		str	r2, [r3, #52]
 345:Drivers/STM32H7xx_HAL_Driver/Src/stm32h7xx_hal_rcc.c **** 
 346:Drivers/STM32H7xx_HAL_Driver/Src/stm32h7xx_hal_rcc.c ****   /* Reset PLL2DIVR register to default value */
 347:Drivers/STM32H7xx_HAL_Driver/Src/stm32h7xx_hal_rcc.c ****   WRITE_REG(RCC->PLL2DIVR,0x01010280U);
 317              		.loc 1 347 3 view .LVU100
 318 0152 9963     		str	r1, [r3, #56]
 348:Drivers/STM32H7xx_HAL_Driver/Src/stm32h7xx_hal_rcc.c **** 
 349:Drivers/STM32H7xx_HAL_Driver/Src/stm32h7xx_hal_rcc.c ****   /* Reset PLL2FRACR register */
 350:Drivers/STM32H7xx_HAL_Driver/Src/stm32h7xx_hal_rcc.c ****   CLEAR_REG(RCC->PLL2FRACR);
 319              		.loc 1 350 3 view .LVU101
 320 0154 DA63     		str	r2, [r3, #60]
 351:Drivers/STM32H7xx_HAL_Driver/Src/stm32h7xx_hal_rcc.c **** 
 352:Drivers/STM32H7xx_HAL_Driver/Src/stm32h7xx_hal_rcc.c ****   /* Reset PLL3DIVR register to default value */
 353:Drivers/STM32H7xx_HAL_Driver/Src/stm32h7xx_hal_rcc.c ****   WRITE_REG(RCC->PLL3DIVR,0x01010280U);
 321              		.loc 1 353 3 view .LVU102
 322 0156 1964     		str	r1, [r3, #64]
 354:Drivers/STM32H7xx_HAL_Driver/Src/stm32h7xx_hal_rcc.c **** 
 355:Drivers/STM32H7xx_HAL_Driver/Src/stm32h7xx_hal_rcc.c ****   /* Reset PLL3FRACR register */
 356:Drivers/STM32H7xx_HAL_Driver/Src/stm32h7xx_hal_rcc.c ****   CLEAR_REG(RCC->PLL3FRACR);
 323              		.loc 1 356 3 view .LVU103
 324 0158 5A64     		str	r2, [r3, #68]
 357:Drivers/STM32H7xx_HAL_Driver/Src/stm32h7xx_hal_rcc.c **** 
 358:Drivers/STM32H7xx_HAL_Driver/Src/stm32h7xx_hal_rcc.c **** #if defined(RCC_CR_HSEEXT)
 359:Drivers/STM32H7xx_HAL_Driver/Src/stm32h7xx_hal_rcc.c ****   /* Reset HSEEXT  */
 360:Drivers/STM32H7xx_HAL_Driver/Src/stm32h7xx_hal_rcc.c ****   CLEAR_BIT(RCC->CR, RCC_CR_HSEEXT);
 361:Drivers/STM32H7xx_HAL_Driver/Src/stm32h7xx_hal_rcc.c **** #endif /* RCC_CR_HSEEXT */
ARM GAS  C:\Users\cinar\AppData\Local\Temp\ccnsnn81.s 			page 13


 362:Drivers/STM32H7xx_HAL_Driver/Src/stm32h7xx_hal_rcc.c **** 
 363:Drivers/STM32H7xx_HAL_Driver/Src/stm32h7xx_hal_rcc.c ****   /* Reset HSEBYP bit */
 364:Drivers/STM32H7xx_HAL_Driver/Src/stm32h7xx_hal_rcc.c ****   CLEAR_BIT(RCC->CR, RCC_CR_HSEBYP);
 325              		.loc 1 364 3 view .LVU104
 326 015a 1968     		ldr	r1, [r3]
 327 015c 21F48021 		bic	r1, r1, #262144
 328 0160 1960     		str	r1, [r3]
 365:Drivers/STM32H7xx_HAL_Driver/Src/stm32h7xx_hal_rcc.c **** 
 366:Drivers/STM32H7xx_HAL_Driver/Src/stm32h7xx_hal_rcc.c ****   /* Disable all interrupts */
 367:Drivers/STM32H7xx_HAL_Driver/Src/stm32h7xx_hal_rcc.c ****   CLEAR_REG(RCC->CIER);
 329              		.loc 1 367 3 view .LVU105
 330 0162 1A66     		str	r2, [r3, #96]
 368:Drivers/STM32H7xx_HAL_Driver/Src/stm32h7xx_hal_rcc.c **** 
 369:Drivers/STM32H7xx_HAL_Driver/Src/stm32h7xx_hal_rcc.c ****   /* Clear all interrupts flags */
 370:Drivers/STM32H7xx_HAL_Driver/Src/stm32h7xx_hal_rcc.c ****   WRITE_REG(RCC->CICR,0xFFFFFFFFU);
 331              		.loc 1 370 3 view .LVU106
 332 0164 4FF0FF32 		mov	r2, #-1
 333 0168 9A66     		str	r2, [r3, #104]
 371:Drivers/STM32H7xx_HAL_Driver/Src/stm32h7xx_hal_rcc.c **** 
 372:Drivers/STM32H7xx_HAL_Driver/Src/stm32h7xx_hal_rcc.c ****   /* Reset all RSR flags */
 373:Drivers/STM32H7xx_HAL_Driver/Src/stm32h7xx_hal_rcc.c ****   SET_BIT(RCC->RSR, RCC_RSR_RMVF);
 334              		.loc 1 373 3 view .LVU107
 335 016a D3F8D020 		ldr	r2, [r3, #208]
 336 016e 42F48032 		orr	r2, r2, #65536
 337 0172 C3F8D020 		str	r2, [r3, #208]
 374:Drivers/STM32H7xx_HAL_Driver/Src/stm32h7xx_hal_rcc.c **** 
 375:Drivers/STM32H7xx_HAL_Driver/Src/stm32h7xx_hal_rcc.c ****       /* Decreasing the number of wait states because of lower CPU frequency */
 376:Drivers/STM32H7xx_HAL_Driver/Src/stm32h7xx_hal_rcc.c ****   if(FLASH_LATENCY_DEFAULT  < __HAL_FLASH_GET_LATENCY())
 338              		.loc 1 376 3 view .LVU108
 339              		.loc 1 376 31 is_stmt 0 view .LVU109
 340 0176 0B4B     		ldr	r3, .L33
 341 0178 1B68     		ldr	r3, [r3]
 342              		.loc 1 376 5 view .LVU110
 343 017a 13F0080F 		tst	r3, #8
 344 017e 0ED0     		beq	.L3
 377:Drivers/STM32H7xx_HAL_Driver/Src/stm32h7xx_hal_rcc.c ****   {
 378:Drivers/STM32H7xx_HAL_Driver/Src/stm32h7xx_hal_rcc.c ****     /* Program the new number of wait states to the LATENCY bits in the FLASH_ACR register */
 379:Drivers/STM32H7xx_HAL_Driver/Src/stm32h7xx_hal_rcc.c ****     __HAL_FLASH_SET_LATENCY(FLASH_LATENCY_DEFAULT);
 345              		.loc 1 379 5 is_stmt 1 view .LVU111
 346 0180 084A     		ldr	r2, .L33
 347 0182 1368     		ldr	r3, [r2]
 348 0184 23F00F03 		bic	r3, r3, #15
 349 0188 43F00703 		orr	r3, r3, #7
 350 018c 1360     		str	r3, [r2]
 380:Drivers/STM32H7xx_HAL_Driver/Src/stm32h7xx_hal_rcc.c **** 
 381:Drivers/STM32H7xx_HAL_Driver/Src/stm32h7xx_hal_rcc.c ****     /* Check that the new number of wait states is taken into account to access the Flash
 382:Drivers/STM32H7xx_HAL_Driver/Src/stm32h7xx_hal_rcc.c ****     memory by reading the FLASH_ACR register */
 383:Drivers/STM32H7xx_HAL_Driver/Src/stm32h7xx_hal_rcc.c ****     if(__HAL_FLASH_GET_LATENCY() != FLASH_LATENCY_DEFAULT)
 351              		.loc 1 383 5 view .LVU112
 352              		.loc 1 383 8 is_stmt 0 view .LVU113
 353 018e 1368     		ldr	r3, [r2]
 354 0190 03F00F03 		and	r3, r3, #15
 355              		.loc 1 383 7 view .LVU114
 356 0194 072B     		cmp	r3, #7
 357 0196 02D0     		beq	.L3
 384:Drivers/STM32H7xx_HAL_Driver/Src/stm32h7xx_hal_rcc.c ****     {
 385:Drivers/STM32H7xx_HAL_Driver/Src/stm32h7xx_hal_rcc.c ****       return HAL_ERROR;
ARM GAS  C:\Users\cinar\AppData\Local\Temp\ccnsnn81.s 			page 14


 358              		.loc 1 385 14 view .LVU115
 359 0198 0124     		movs	r4, #1
 360 019a 00E0     		b	.L3
 361              	.LVL27:
 362              	.L16:
 204:Drivers/STM32H7xx_HAL_Driver/Src/stm32h7xx_hal_rcc.c ****     }
 363              		.loc 1 204 14 view .LVU116
 364 019c 0124     		movs	r4, #1
 365              	.L3:
 386:Drivers/STM32H7xx_HAL_Driver/Src/stm32h7xx_hal_rcc.c ****     }
 387:Drivers/STM32H7xx_HAL_Driver/Src/stm32h7xx_hal_rcc.c **** 
 388:Drivers/STM32H7xx_HAL_Driver/Src/stm32h7xx_hal_rcc.c **** }
 389:Drivers/STM32H7xx_HAL_Driver/Src/stm32h7xx_hal_rcc.c **** 
 390:Drivers/STM32H7xx_HAL_Driver/Src/stm32h7xx_hal_rcc.c ****   return HAL_OK;
 391:Drivers/STM32H7xx_HAL_Driver/Src/stm32h7xx_hal_rcc.c **** }
 366              		.loc 1 391 1 view .LVU117
 367 019e 2046     		mov	r0, r4
 368 01a0 38BD     		pop	{r3, r4, r5, pc}
 369              	.L34:
 370 01a2 00BF     		.align	2
 371              	.L33:
 372 01a4 00200052 		.word	1375739904
 373 01a8 00440258 		.word	1476543488
 374 01ac 0090D003 		.word	64000000
 375 01b0 00000000 		.word	SystemCoreClock
 376 01b4 00000000 		.word	SystemD2Clock
 377 01b8 00000000 		.word	uwTickPrio
 378 01bc 45EDF6FF 		.word	-594619
 379 01c0 00020202 		.word	33686016
 380 01c4 0000FF01 		.word	33488896
 381 01c8 80020101 		.word	16843392
 382              		.cfi_endproc
 383              	.LFE144:
 385              		.section	.text.HAL_RCC_OscConfig,"ax",%progbits
 386              		.align	1
 387              		.weak	HAL_RCC_OscConfig
 388              		.syntax unified
 389              		.thumb
 390              		.thumb_func
 391              		.fpu fpv5-d16
 393              	HAL_RCC_OscConfig:
 394              	.LVL28:
 395              	.LFB145:
 392:Drivers/STM32H7xx_HAL_Driver/Src/stm32h7xx_hal_rcc.c **** 
 393:Drivers/STM32H7xx_HAL_Driver/Src/stm32h7xx_hal_rcc.c **** /**
 394:Drivers/STM32H7xx_HAL_Driver/Src/stm32h7xx_hal_rcc.c ****   * @brief  Initializes the RCC Oscillators according to the specified parameters in the
 395:Drivers/STM32H7xx_HAL_Driver/Src/stm32h7xx_hal_rcc.c ****   *         RCC_OscInitTypeDef.
 396:Drivers/STM32H7xx_HAL_Driver/Src/stm32h7xx_hal_rcc.c ****   * @param  RCC_OscInitStruct: pointer to an RCC_OscInitTypeDef structure that
 397:Drivers/STM32H7xx_HAL_Driver/Src/stm32h7xx_hal_rcc.c ****   *         contains the configuration information for the RCC Oscillators.
 398:Drivers/STM32H7xx_HAL_Driver/Src/stm32h7xx_hal_rcc.c ****   * @note   The PLL is not disabled when used as system clock.
 399:Drivers/STM32H7xx_HAL_Driver/Src/stm32h7xx_hal_rcc.c ****   * @note   Transitions LSE Bypass to LSE On and LSE On to LSE Bypass are not
 400:Drivers/STM32H7xx_HAL_Driver/Src/stm32h7xx_hal_rcc.c ****   *         supported by this function. User should request a transition to LSE Off
 401:Drivers/STM32H7xx_HAL_Driver/Src/stm32h7xx_hal_rcc.c ****   *         first and then LSE On or LSE Bypass.
 402:Drivers/STM32H7xx_HAL_Driver/Src/stm32h7xx_hal_rcc.c ****   * @note   Transition HSE Bypass to HSE On and HSE On to HSE Bypass are not
 403:Drivers/STM32H7xx_HAL_Driver/Src/stm32h7xx_hal_rcc.c ****   *         supported by this function. User should request a transition to HSE Off
 404:Drivers/STM32H7xx_HAL_Driver/Src/stm32h7xx_hal_rcc.c ****   *         first and then HSE On or HSE Bypass.
 405:Drivers/STM32H7xx_HAL_Driver/Src/stm32h7xx_hal_rcc.c ****   * @retval HAL status
ARM GAS  C:\Users\cinar\AppData\Local\Temp\ccnsnn81.s 			page 15


 406:Drivers/STM32H7xx_HAL_Driver/Src/stm32h7xx_hal_rcc.c ****   */
 407:Drivers/STM32H7xx_HAL_Driver/Src/stm32h7xx_hal_rcc.c **** __weak HAL_StatusTypeDef HAL_RCC_OscConfig(RCC_OscInitTypeDef  *RCC_OscInitStruct)
 408:Drivers/STM32H7xx_HAL_Driver/Src/stm32h7xx_hal_rcc.c **** {
 396              		.loc 1 408 1 is_stmt 1 view -0
 397              		.cfi_startproc
 398              		@ args = 0, pretend = 0, frame = 0
 399              		@ frame_needed = 0, uses_anonymous_args = 0
 409:Drivers/STM32H7xx_HAL_Driver/Src/stm32h7xx_hal_rcc.c ****   uint32_t tickstart;
 400              		.loc 1 409 3 view .LVU119
 410:Drivers/STM32H7xx_HAL_Driver/Src/stm32h7xx_hal_rcc.c ****   uint32_t temp1_pllckcfg, temp2_pllckcfg;
 401              		.loc 1 410 3 view .LVU120
 411:Drivers/STM32H7xx_HAL_Driver/Src/stm32h7xx_hal_rcc.c **** 
 412:Drivers/STM32H7xx_HAL_Driver/Src/stm32h7xx_hal_rcc.c ****     /* Check Null pointer */
 413:Drivers/STM32H7xx_HAL_Driver/Src/stm32h7xx_hal_rcc.c ****   if(RCC_OscInitStruct == NULL)
 402              		.loc 1 413 3 view .LVU121
 403              		.loc 1 413 5 is_stmt 0 view .LVU122
 404 0000 0028     		cmp	r0, #0
 405 0002 00F09582 		beq	.L99
 408:Drivers/STM32H7xx_HAL_Driver/Src/stm32h7xx_hal_rcc.c ****   uint32_t tickstart;
 406              		.loc 1 408 1 view .LVU123
 407 0006 38B5     		push	{r3, r4, r5, lr}
 408              	.LCFI1:
 409              		.cfi_def_cfa_offset 16
 410              		.cfi_offset 3, -16
 411              		.cfi_offset 4, -12
 412              		.cfi_offset 5, -8
 413              		.cfi_offset 14, -4
 414 0008 0446     		mov	r4, r0
 414:Drivers/STM32H7xx_HAL_Driver/Src/stm32h7xx_hal_rcc.c ****   {
 415:Drivers/STM32H7xx_HAL_Driver/Src/stm32h7xx_hal_rcc.c ****     return HAL_ERROR;
 416:Drivers/STM32H7xx_HAL_Driver/Src/stm32h7xx_hal_rcc.c ****   }
 417:Drivers/STM32H7xx_HAL_Driver/Src/stm32h7xx_hal_rcc.c **** 
 418:Drivers/STM32H7xx_HAL_Driver/Src/stm32h7xx_hal_rcc.c ****   /* Check the parameters */
 419:Drivers/STM32H7xx_HAL_Driver/Src/stm32h7xx_hal_rcc.c ****   assert_param(IS_RCC_OSCILLATORTYPE(RCC_OscInitStruct->OscillatorType));
 415              		.loc 1 419 3 is_stmt 1 view .LVU124
 420:Drivers/STM32H7xx_HAL_Driver/Src/stm32h7xx_hal_rcc.c ****   /*------------------------------- HSE Configuration ------------------------*/
 421:Drivers/STM32H7xx_HAL_Driver/Src/stm32h7xx_hal_rcc.c ****   if(((RCC_OscInitStruct->OscillatorType) & RCC_OSCILLATORTYPE_HSE) == RCC_OSCILLATORTYPE_HSE)
 416              		.loc 1 421 3 view .LVU125
 417              		.loc 1 421 25 is_stmt 0 view .LVU126
 418 000a 0368     		ldr	r3, [r0]
 419              		.loc 1 421 5 view .LVU127
 420 000c 13F0010F 		tst	r3, #1
 421 0010 25D0     		beq	.L37
 422              	.LBB2:
 422:Drivers/STM32H7xx_HAL_Driver/Src/stm32h7xx_hal_rcc.c ****   {
 423:Drivers/STM32H7xx_HAL_Driver/Src/stm32h7xx_hal_rcc.c ****     /* Check the parameters */
 424:Drivers/STM32H7xx_HAL_Driver/Src/stm32h7xx_hal_rcc.c ****     assert_param(IS_RCC_HSE(RCC_OscInitStruct->HSEState));
 423              		.loc 1 424 5 is_stmt 1 view .LVU128
 425:Drivers/STM32H7xx_HAL_Driver/Src/stm32h7xx_hal_rcc.c **** 
 426:Drivers/STM32H7xx_HAL_Driver/Src/stm32h7xx_hal_rcc.c ****     const uint32_t temp_sysclksrc = __HAL_RCC_GET_SYSCLK_SOURCE();
 424              		.loc 1 426 5 view .LVU129
 425              		.loc 1 426 37 is_stmt 0 view .LVU130
 426 0012 9E4A     		ldr	r2, .L147
 427 0014 1369     		ldr	r3, [r2, #16]
 428              		.loc 1 426 20 view .LVU131
 429 0016 03F03803 		and	r3, r3, #56
 430              	.LVL29:
ARM GAS  C:\Users\cinar\AppData\Local\Temp\ccnsnn81.s 			page 16


 427:Drivers/STM32H7xx_HAL_Driver/Src/stm32h7xx_hal_rcc.c ****     const uint32_t temp_pllckselr = RCC->PLLCKSELR;
 431              		.loc 1 427 5 is_stmt 1 view .LVU132
 432              		.loc 1 427 20 is_stmt 0 view .LVU133
 433 001a 926A     		ldr	r2, [r2, #40]
 434              	.LVL30:
 428:Drivers/STM32H7xx_HAL_Driver/Src/stm32h7xx_hal_rcc.c ****     /* When the HSE is used as system clock or clock source for PLL in these cases HSE will not dis
 429:Drivers/STM32H7xx_HAL_Driver/Src/stm32h7xx_hal_rcc.c ****     if((temp_sysclksrc == RCC_CFGR_SWS_HSE) || ((temp_sysclksrc == RCC_CFGR_SWS_PLL1) && ((temp_pll
 435              		.loc 1 429 5 is_stmt 1 view .LVU134
 436              		.loc 1 429 7 is_stmt 0 view .LVU135
 437 001c 102B     		cmp	r3, #16
 438 001e 15D0     		beq	.L38
 439              		.loc 1 429 45 discriminator 1 view .LVU136
 440 0020 182B     		cmp	r3, #24
 441 0022 0FD0     		beq	.L131
 442              	.LVL31:
 443              	.L39:
 430:Drivers/STM32H7xx_HAL_Driver/Src/stm32h7xx_hal_rcc.c ****     {
 431:Drivers/STM32H7xx_HAL_Driver/Src/stm32h7xx_hal_rcc.c ****       if((__HAL_RCC_GET_FLAG(RCC_FLAG_HSERDY) != 0U) && (RCC_OscInitStruct->HSEState == RCC_HSE_OFF
 432:Drivers/STM32H7xx_HAL_Driver/Src/stm32h7xx_hal_rcc.c ****       {
 433:Drivers/STM32H7xx_HAL_Driver/Src/stm32h7xx_hal_rcc.c ****         return HAL_ERROR;
 434:Drivers/STM32H7xx_HAL_Driver/Src/stm32h7xx_hal_rcc.c ****       }
 435:Drivers/STM32H7xx_HAL_Driver/Src/stm32h7xx_hal_rcc.c ****     }
 436:Drivers/STM32H7xx_HAL_Driver/Src/stm32h7xx_hal_rcc.c ****     else
 437:Drivers/STM32H7xx_HAL_Driver/Src/stm32h7xx_hal_rcc.c ****     {
 438:Drivers/STM32H7xx_HAL_Driver/Src/stm32h7xx_hal_rcc.c ****       /* Set the new HSE configuration ---------------------------------------*/
 439:Drivers/STM32H7xx_HAL_Driver/Src/stm32h7xx_hal_rcc.c ****       __HAL_RCC_HSE_CONFIG(RCC_OscInitStruct->HSEState);
 444              		.loc 1 439 7 is_stmt 1 view .LVU137
 445              		.loc 1 439 7 view .LVU138
 446 0024 6368     		ldr	r3, [r4, #4]
 447              	.LVL32:
 448              		.loc 1 439 7 is_stmt 0 view .LVU139
 449 0026 B3F5803F 		cmp	r3, #65536
 450 002a 3DD0     		beq	.L132
 451              		.loc 1 439 7 is_stmt 1 discriminator 2 view .LVU140
 452 002c 002B     		cmp	r3, #0
 453 002e 51D1     		bne	.L42
 454              		.loc 1 439 7 discriminator 4 view .LVU141
 455 0030 964B     		ldr	r3, .L147
 456 0032 1A68     		ldr	r2, [r3]
 457 0034 22F48032 		bic	r2, r2, #65536
 458 0038 1A60     		str	r2, [r3]
 459              		.loc 1 439 7 discriminator 4 view .LVU142
 460 003a 1A68     		ldr	r2, [r3]
 461 003c 22F48022 		bic	r2, r2, #262144
 462 0040 1A60     		str	r2, [r3]
 463 0042 36E0     		b	.L41
 464              	.LVL33:
 465              	.L131:
 429:Drivers/STM32H7xx_HAL_Driver/Src/stm32h7xx_hal_rcc.c ****     {
 466              		.loc 1 429 107 is_stmt 0 discriminator 2 view .LVU143
 467 0044 02F00302 		and	r2, r2, #3
 468              	.LVL34:
 429:Drivers/STM32H7xx_HAL_Driver/Src/stm32h7xx_hal_rcc.c ****     {
 469              		.loc 1 429 87 discriminator 2 view .LVU144
 470 0048 022A     		cmp	r2, #2
 471 004a EBD1     		bne	.L39
 472              	.L38:
ARM GAS  C:\Users\cinar\AppData\Local\Temp\ccnsnn81.s 			page 17


 431:Drivers/STM32H7xx_HAL_Driver/Src/stm32h7xx_hal_rcc.c ****       {
 473              		.loc 1 431 7 is_stmt 1 view .LVU145
 431:Drivers/STM32H7xx_HAL_Driver/Src/stm32h7xx_hal_rcc.c ****       {
 474              		.loc 1 431 11 is_stmt 0 view .LVU146
 475 004c 8F4B     		ldr	r3, .L147
 476              	.LVL35:
 431:Drivers/STM32H7xx_HAL_Driver/Src/stm32h7xx_hal_rcc.c ****       {
 477              		.loc 1 431 11 view .LVU147
 478 004e 1B68     		ldr	r3, [r3]
 431:Drivers/STM32H7xx_HAL_Driver/Src/stm32h7xx_hal_rcc.c ****       {
 479              		.loc 1 431 9 view .LVU148
 480 0050 13F4003F 		tst	r3, #131072
 481 0054 03D0     		beq	.L37
 431:Drivers/STM32H7xx_HAL_Driver/Src/stm32h7xx_hal_rcc.c ****       {
 482              		.loc 1 431 75 discriminator 1 view .LVU149
 483 0056 6368     		ldr	r3, [r4, #4]
 431:Drivers/STM32H7xx_HAL_Driver/Src/stm32h7xx_hal_rcc.c ****       {
 484              		.loc 1 431 54 discriminator 1 view .LVU150
 485 0058 002B     		cmp	r3, #0
 486 005a 00F07382 		beq	.L133
 487              	.LVL36:
 488              	.L37:
 431:Drivers/STM32H7xx_HAL_Driver/Src/stm32h7xx_hal_rcc.c ****       {
 489              		.loc 1 431 54 discriminator 1 view .LVU151
 490              	.LBE2:
 440:Drivers/STM32H7xx_HAL_Driver/Src/stm32h7xx_hal_rcc.c **** 
 441:Drivers/STM32H7xx_HAL_Driver/Src/stm32h7xx_hal_rcc.c ****       /* Check the HSE State */
 442:Drivers/STM32H7xx_HAL_Driver/Src/stm32h7xx_hal_rcc.c ****       if(RCC_OscInitStruct->HSEState != RCC_HSE_OFF)
 443:Drivers/STM32H7xx_HAL_Driver/Src/stm32h7xx_hal_rcc.c ****       {
 444:Drivers/STM32H7xx_HAL_Driver/Src/stm32h7xx_hal_rcc.c ****         /* Get Start Tick*/
 445:Drivers/STM32H7xx_HAL_Driver/Src/stm32h7xx_hal_rcc.c ****         tickstart = HAL_GetTick();
 446:Drivers/STM32H7xx_HAL_Driver/Src/stm32h7xx_hal_rcc.c **** 
 447:Drivers/STM32H7xx_HAL_Driver/Src/stm32h7xx_hal_rcc.c ****         /* Wait till HSE is ready */
 448:Drivers/STM32H7xx_HAL_Driver/Src/stm32h7xx_hal_rcc.c ****         while(__HAL_RCC_GET_FLAG(RCC_FLAG_HSERDY) == 0U)
 449:Drivers/STM32H7xx_HAL_Driver/Src/stm32h7xx_hal_rcc.c ****         {
 450:Drivers/STM32H7xx_HAL_Driver/Src/stm32h7xx_hal_rcc.c ****           if((uint32_t) (HAL_GetTick() - tickstart ) > HSE_TIMEOUT_VALUE)
 451:Drivers/STM32H7xx_HAL_Driver/Src/stm32h7xx_hal_rcc.c ****           {
 452:Drivers/STM32H7xx_HAL_Driver/Src/stm32h7xx_hal_rcc.c ****             return HAL_TIMEOUT;
 453:Drivers/STM32H7xx_HAL_Driver/Src/stm32h7xx_hal_rcc.c ****           }
 454:Drivers/STM32H7xx_HAL_Driver/Src/stm32h7xx_hal_rcc.c ****         }
 455:Drivers/STM32H7xx_HAL_Driver/Src/stm32h7xx_hal_rcc.c ****       }
 456:Drivers/STM32H7xx_HAL_Driver/Src/stm32h7xx_hal_rcc.c ****       else
 457:Drivers/STM32H7xx_HAL_Driver/Src/stm32h7xx_hal_rcc.c ****       {
 458:Drivers/STM32H7xx_HAL_Driver/Src/stm32h7xx_hal_rcc.c ****         /* Get Start Tick*/
 459:Drivers/STM32H7xx_HAL_Driver/Src/stm32h7xx_hal_rcc.c ****         tickstart = HAL_GetTick();
 460:Drivers/STM32H7xx_HAL_Driver/Src/stm32h7xx_hal_rcc.c **** 
 461:Drivers/STM32H7xx_HAL_Driver/Src/stm32h7xx_hal_rcc.c ****         /* Wait till HSE is disabled */
 462:Drivers/STM32H7xx_HAL_Driver/Src/stm32h7xx_hal_rcc.c ****         while(__HAL_RCC_GET_FLAG(RCC_FLAG_HSERDY) != 0U)
 463:Drivers/STM32H7xx_HAL_Driver/Src/stm32h7xx_hal_rcc.c ****         {
 464:Drivers/STM32H7xx_HAL_Driver/Src/stm32h7xx_hal_rcc.c ****           if((uint32_t) (HAL_GetTick() - tickstart ) > HSE_TIMEOUT_VALUE)
 465:Drivers/STM32H7xx_HAL_Driver/Src/stm32h7xx_hal_rcc.c ****           {
 466:Drivers/STM32H7xx_HAL_Driver/Src/stm32h7xx_hal_rcc.c ****             return HAL_TIMEOUT;
 467:Drivers/STM32H7xx_HAL_Driver/Src/stm32h7xx_hal_rcc.c ****           }
 468:Drivers/STM32H7xx_HAL_Driver/Src/stm32h7xx_hal_rcc.c ****         }
 469:Drivers/STM32H7xx_HAL_Driver/Src/stm32h7xx_hal_rcc.c ****       }
 470:Drivers/STM32H7xx_HAL_Driver/Src/stm32h7xx_hal_rcc.c ****     }
 471:Drivers/STM32H7xx_HAL_Driver/Src/stm32h7xx_hal_rcc.c ****   }
ARM GAS  C:\Users\cinar\AppData\Local\Temp\ccnsnn81.s 			page 18


 472:Drivers/STM32H7xx_HAL_Driver/Src/stm32h7xx_hal_rcc.c ****   /*----------------------------- HSI Configuration --------------------------*/
 473:Drivers/STM32H7xx_HAL_Driver/Src/stm32h7xx_hal_rcc.c ****   if(((RCC_OscInitStruct->OscillatorType) & RCC_OSCILLATORTYPE_HSI) == RCC_OSCILLATORTYPE_HSI)
 491              		.loc 1 473 3 is_stmt 1 view .LVU152
 492              		.loc 1 473 25 is_stmt 0 view .LVU153
 493 005e 2368     		ldr	r3, [r4]
 494              		.loc 1 473 5 view .LVU154
 495 0060 13F0020F 		tst	r3, #2
 496 0064 70D0     		beq	.L49
 497              	.LBB3:
 474:Drivers/STM32H7xx_HAL_Driver/Src/stm32h7xx_hal_rcc.c ****   {
 475:Drivers/STM32H7xx_HAL_Driver/Src/stm32h7xx_hal_rcc.c ****     /* Check the parameters */
 476:Drivers/STM32H7xx_HAL_Driver/Src/stm32h7xx_hal_rcc.c ****     assert_param(IS_RCC_HSI(RCC_OscInitStruct->HSIState));
 498              		.loc 1 476 5 is_stmt 1 view .LVU155
 477:Drivers/STM32H7xx_HAL_Driver/Src/stm32h7xx_hal_rcc.c ****     assert_param(IS_RCC_HSICALIBRATION_VALUE(RCC_OscInitStruct->HSICalibrationValue));
 499              		.loc 1 477 5 view .LVU156
 478:Drivers/STM32H7xx_HAL_Driver/Src/stm32h7xx_hal_rcc.c **** 
 479:Drivers/STM32H7xx_HAL_Driver/Src/stm32h7xx_hal_rcc.c ****     /* When the HSI is used as system clock it will not be disabled */
 480:Drivers/STM32H7xx_HAL_Driver/Src/stm32h7xx_hal_rcc.c ****     const uint32_t temp_sysclksrc = __HAL_RCC_GET_SYSCLK_SOURCE();
 500              		.loc 1 480 5 view .LVU157
 501              		.loc 1 480 37 is_stmt 0 view .LVU158
 502 0066 894A     		ldr	r2, .L147
 503 0068 1369     		ldr	r3, [r2, #16]
 504              	.LVL37:
 481:Drivers/STM32H7xx_HAL_Driver/Src/stm32h7xx_hal_rcc.c ****     const uint32_t temp_pllckselr = RCC->PLLCKSELR;
 505              		.loc 1 481 5 is_stmt 1 view .LVU159
 506              		.loc 1 481 20 is_stmt 0 view .LVU160
 507 006a 926A     		ldr	r2, [r2, #40]
 508              	.LVL38:
 482:Drivers/STM32H7xx_HAL_Driver/Src/stm32h7xx_hal_rcc.c ****     if((temp_sysclksrc == RCC_CFGR_SWS_HSI) || ((temp_sysclksrc == RCC_CFGR_SWS_PLL1) && ((temp_pll
 509              		.loc 1 482 5 is_stmt 1 view .LVU161
 510              		.loc 1 482 7 is_stmt 0 view .LVU162
 511 006c 13F03803 		ands	r3, r3, #56
 512              	.LVL39:
 513              		.loc 1 482 7 view .LVU163
 514 0070 59D0     		beq	.L50
 515              		.loc 1 482 45 discriminator 1 view .LVU164
 516 0072 182B     		cmp	r3, #24
 517 0074 54D0     		beq	.L134
 518              	.L51:
 483:Drivers/STM32H7xx_HAL_Driver/Src/stm32h7xx_hal_rcc.c ****     {
 484:Drivers/STM32H7xx_HAL_Driver/Src/stm32h7xx_hal_rcc.c ****       /* When HSI is used as system clock it will not be disabled */
 485:Drivers/STM32H7xx_HAL_Driver/Src/stm32h7xx_hal_rcc.c ****       if((__HAL_RCC_GET_FLAG(RCC_FLAG_HSIRDY) != 0U) && (RCC_OscInitStruct->HSIState == RCC_HSI_OFF
 486:Drivers/STM32H7xx_HAL_Driver/Src/stm32h7xx_hal_rcc.c ****       {
 487:Drivers/STM32H7xx_HAL_Driver/Src/stm32h7xx_hal_rcc.c ****         return HAL_ERROR;
 488:Drivers/STM32H7xx_HAL_Driver/Src/stm32h7xx_hal_rcc.c ****       }
 489:Drivers/STM32H7xx_HAL_Driver/Src/stm32h7xx_hal_rcc.c ****       /* Otherwise, just the calibration is allowed */
 490:Drivers/STM32H7xx_HAL_Driver/Src/stm32h7xx_hal_rcc.c ****       else
 491:Drivers/STM32H7xx_HAL_Driver/Src/stm32h7xx_hal_rcc.c ****       {
 492:Drivers/STM32H7xx_HAL_Driver/Src/stm32h7xx_hal_rcc.c ****         /* Adjusts the Internal High Speed oscillator (HSI) calibration value.*/
 493:Drivers/STM32H7xx_HAL_Driver/Src/stm32h7xx_hal_rcc.c ****         __HAL_RCC_HSI_CALIBRATIONVALUE_ADJUST(RCC_OscInitStruct->HSICalibrationValue);
 494:Drivers/STM32H7xx_HAL_Driver/Src/stm32h7xx_hal_rcc.c ****       }
 495:Drivers/STM32H7xx_HAL_Driver/Src/stm32h7xx_hal_rcc.c ****     }
 496:Drivers/STM32H7xx_HAL_Driver/Src/stm32h7xx_hal_rcc.c **** 
 497:Drivers/STM32H7xx_HAL_Driver/Src/stm32h7xx_hal_rcc.c ****     else
 498:Drivers/STM32H7xx_HAL_Driver/Src/stm32h7xx_hal_rcc.c ****     {
 499:Drivers/STM32H7xx_HAL_Driver/Src/stm32h7xx_hal_rcc.c ****       /* Check the HSI State */
 500:Drivers/STM32H7xx_HAL_Driver/Src/stm32h7xx_hal_rcc.c ****       if((RCC_OscInitStruct->HSIState)!= RCC_HSI_OFF)
ARM GAS  C:\Users\cinar\AppData\Local\Temp\ccnsnn81.s 			page 19


 519              		.loc 1 500 7 is_stmt 1 view .LVU165
 520              		.loc 1 500 28 is_stmt 0 view .LVU166
 521 0076 E368     		ldr	r3, [r4, #12]
 522              	.LVL40:
 523              		.loc 1 500 9 view .LVU167
 524 0078 002B     		cmp	r3, #0
 525 007a 00F09280 		beq	.L53
 501:Drivers/STM32H7xx_HAL_Driver/Src/stm32h7xx_hal_rcc.c ****       {
 502:Drivers/STM32H7xx_HAL_Driver/Src/stm32h7xx_hal_rcc.c ****      /* Enable the Internal High Speed oscillator (HSI, HSIDIV2,HSIDIV4, or HSIDIV8) */
 503:Drivers/STM32H7xx_HAL_Driver/Src/stm32h7xx_hal_rcc.c ****         __HAL_RCC_HSI_CONFIG(RCC_OscInitStruct->HSIState);
 526              		.loc 1 503 9 is_stmt 1 view .LVU168
 527 007e 8349     		ldr	r1, .L147
 528 0080 0A68     		ldr	r2, [r1]
 529              	.LVL41:
 530              		.loc 1 503 9 is_stmt 0 view .LVU169
 531 0082 22F01902 		bic	r2, r2, #25
 532 0086 1343     		orrs	r3, r3, r2
 533 0088 0B60     		str	r3, [r1]
 504:Drivers/STM32H7xx_HAL_Driver/Src/stm32h7xx_hal_rcc.c **** 
 505:Drivers/STM32H7xx_HAL_Driver/Src/stm32h7xx_hal_rcc.c ****         /* Get Start Tick*/
 506:Drivers/STM32H7xx_HAL_Driver/Src/stm32h7xx_hal_rcc.c ****         tickstart = HAL_GetTick();
 534              		.loc 1 506 9 is_stmt 1 view .LVU170
 535              		.loc 1 506 21 is_stmt 0 view .LVU171
 536 008a FFF7FEFF 		bl	HAL_GetTick
 537              	.LVL42:
 538 008e 0546     		mov	r5, r0
 539              	.LVL43:
 507:Drivers/STM32H7xx_HAL_Driver/Src/stm32h7xx_hal_rcc.c **** 
 508:Drivers/STM32H7xx_HAL_Driver/Src/stm32h7xx_hal_rcc.c ****         /* Wait till HSI is ready */
 509:Drivers/STM32H7xx_HAL_Driver/Src/stm32h7xx_hal_rcc.c ****         while(__HAL_RCC_GET_FLAG(RCC_FLAG_HSIRDY) == 0U)
 540              		.loc 1 509 9 is_stmt 1 view .LVU172
 541              	.L54:
 542              		.loc 1 509 14 view .LVU173
 543              		.loc 1 509 15 is_stmt 0 view .LVU174
 544 0090 7E4B     		ldr	r3, .L147
 545 0092 1B68     		ldr	r3, [r3]
 546              		.loc 1 509 14 view .LVU175
 547 0094 13F0040F 		tst	r3, #4
 548 0098 7AD1     		bne	.L135
 510:Drivers/STM32H7xx_HAL_Driver/Src/stm32h7xx_hal_rcc.c ****         {
 511:Drivers/STM32H7xx_HAL_Driver/Src/stm32h7xx_hal_rcc.c ****           if((HAL_GetTick() - tickstart ) > HSI_TIMEOUT_VALUE)
 549              		.loc 1 511 11 is_stmt 1 view .LVU176
 550              		.loc 1 511 15 is_stmt 0 view .LVU177
 551 009a FFF7FEFF 		bl	HAL_GetTick
 552              	.LVL44:
 553              		.loc 1 511 29 view .LVU178
 554 009e 401B     		subs	r0, r0, r5
 555              		.loc 1 511 13 view .LVU179
 556 00a0 0228     		cmp	r0, #2
 557 00a2 F5D9     		bls	.L54
 512:Drivers/STM32H7xx_HAL_Driver/Src/stm32h7xx_hal_rcc.c ****           {
 513:Drivers/STM32H7xx_HAL_Driver/Src/stm32h7xx_hal_rcc.c ****             return HAL_TIMEOUT;
 558              		.loc 1 513 20 view .LVU180
 559 00a4 0320     		movs	r0, #3
 560 00a6 54E2     		b	.L36
 561              	.LVL45:
 562              	.L132:
ARM GAS  C:\Users\cinar\AppData\Local\Temp\ccnsnn81.s 			page 20


 563              		.loc 1 513 20 view .LVU181
 564              	.LBE3:
 565              	.LBB4:
 439:Drivers/STM32H7xx_HAL_Driver/Src/stm32h7xx_hal_rcc.c **** 
 566              		.loc 1 439 7 is_stmt 1 discriminator 1 view .LVU182
 567 00a8 784A     		ldr	r2, .L147
 568 00aa 1368     		ldr	r3, [r2]
 569 00ac 43F48033 		orr	r3, r3, #65536
 570 00b0 1360     		str	r3, [r2]
 571              	.L41:
 439:Drivers/STM32H7xx_HAL_Driver/Src/stm32h7xx_hal_rcc.c **** 
 572              		.loc 1 439 7 discriminator 10 view .LVU183
 442:Drivers/STM32H7xx_HAL_Driver/Src/stm32h7xx_hal_rcc.c ****       {
 573              		.loc 1 442 7 discriminator 10 view .LVU184
 442:Drivers/STM32H7xx_HAL_Driver/Src/stm32h7xx_hal_rcc.c ****       {
 574              		.loc 1 442 27 is_stmt 0 discriminator 10 view .LVU185
 575 00b2 6368     		ldr	r3, [r4, #4]
 442:Drivers/STM32H7xx_HAL_Driver/Src/stm32h7xx_hal_rcc.c ****       {
 576              		.loc 1 442 9 discriminator 10 view .LVU186
 577 00b4 2BB3     		cbz	r3, .L44
 445:Drivers/STM32H7xx_HAL_Driver/Src/stm32h7xx_hal_rcc.c **** 
 578              		.loc 1 445 9 is_stmt 1 view .LVU187
 445:Drivers/STM32H7xx_HAL_Driver/Src/stm32h7xx_hal_rcc.c **** 
 579              		.loc 1 445 21 is_stmt 0 view .LVU188
 580 00b6 FFF7FEFF 		bl	HAL_GetTick
 581              	.LVL46:
 445:Drivers/STM32H7xx_HAL_Driver/Src/stm32h7xx_hal_rcc.c **** 
 582              		.loc 1 445 21 view .LVU189
 583 00ba 0546     		mov	r5, r0
 584              	.LVL47:
 448:Drivers/STM32H7xx_HAL_Driver/Src/stm32h7xx_hal_rcc.c ****         {
 585              		.loc 1 448 9 is_stmt 1 view .LVU190
 586              	.L45:
 448:Drivers/STM32H7xx_HAL_Driver/Src/stm32h7xx_hal_rcc.c ****         {
 587              		.loc 1 448 14 view .LVU191
 448:Drivers/STM32H7xx_HAL_Driver/Src/stm32h7xx_hal_rcc.c ****         {
 588              		.loc 1 448 15 is_stmt 0 view .LVU192
 589 00bc 734B     		ldr	r3, .L147
 590 00be 1B68     		ldr	r3, [r3]
 448:Drivers/STM32H7xx_HAL_Driver/Src/stm32h7xx_hal_rcc.c ****         {
 591              		.loc 1 448 14 view .LVU193
 592 00c0 13F4003F 		tst	r3, #131072
 593 00c4 CBD1     		bne	.L37
 450:Drivers/STM32H7xx_HAL_Driver/Src/stm32h7xx_hal_rcc.c ****           {
 594              		.loc 1 450 11 is_stmt 1 view .LVU194
 450:Drivers/STM32H7xx_HAL_Driver/Src/stm32h7xx_hal_rcc.c ****           {
 595              		.loc 1 450 26 is_stmt 0 view .LVU195
 596 00c6 FFF7FEFF 		bl	HAL_GetTick
 597              	.LVL48:
 450:Drivers/STM32H7xx_HAL_Driver/Src/stm32h7xx_hal_rcc.c ****           {
 598              		.loc 1 450 40 view .LVU196
 599 00ca 401B     		subs	r0, r0, r5
 450:Drivers/STM32H7xx_HAL_Driver/Src/stm32h7xx_hal_rcc.c ****           {
 600              		.loc 1 450 13 view .LVU197
 601 00cc 6428     		cmp	r0, #100
 602 00ce F5D9     		bls	.L45
 452:Drivers/STM32H7xx_HAL_Driver/Src/stm32h7xx_hal_rcc.c ****           }
ARM GAS  C:\Users\cinar\AppData\Local\Temp\ccnsnn81.s 			page 21


 603              		.loc 1 452 20 view .LVU198
 604 00d0 0320     		movs	r0, #3
 605 00d2 3EE2     		b	.L36
 606              	.LVL49:
 607              	.L42:
 439:Drivers/STM32H7xx_HAL_Driver/Src/stm32h7xx_hal_rcc.c **** 
 608              		.loc 1 439 7 is_stmt 1 discriminator 5 view .LVU199
 609 00d4 B3F5A02F 		cmp	r3, #327680
 610 00d8 09D0     		beq	.L136
 439:Drivers/STM32H7xx_HAL_Driver/Src/stm32h7xx_hal_rcc.c **** 
 611              		.loc 1 439 7 discriminator 8 view .LVU200
 612 00da 6C4B     		ldr	r3, .L147
 613 00dc 1A68     		ldr	r2, [r3]
 614 00de 22F48032 		bic	r2, r2, #65536
 615 00e2 1A60     		str	r2, [r3]
 439:Drivers/STM32H7xx_HAL_Driver/Src/stm32h7xx_hal_rcc.c **** 
 616              		.loc 1 439 7 discriminator 8 view .LVU201
 617 00e4 1A68     		ldr	r2, [r3]
 618 00e6 22F48022 		bic	r2, r2, #262144
 619 00ea 1A60     		str	r2, [r3]
 620 00ec E1E7     		b	.L41
 621              	.L136:
 439:Drivers/STM32H7xx_HAL_Driver/Src/stm32h7xx_hal_rcc.c **** 
 622              		.loc 1 439 7 discriminator 7 view .LVU202
 623 00ee 674B     		ldr	r3, .L147
 624 00f0 1A68     		ldr	r2, [r3]
 625 00f2 42F48022 		orr	r2, r2, #262144
 626 00f6 1A60     		str	r2, [r3]
 439:Drivers/STM32H7xx_HAL_Driver/Src/stm32h7xx_hal_rcc.c **** 
 627              		.loc 1 439 7 discriminator 7 view .LVU203
 628 00f8 1A68     		ldr	r2, [r3]
 629 00fa 42F48032 		orr	r2, r2, #65536
 630 00fe 1A60     		str	r2, [r3]
 631 0100 D7E7     		b	.L41
 632              	.L44:
 459:Drivers/STM32H7xx_HAL_Driver/Src/stm32h7xx_hal_rcc.c **** 
 633              		.loc 1 459 9 view .LVU204
 459:Drivers/STM32H7xx_HAL_Driver/Src/stm32h7xx_hal_rcc.c **** 
 634              		.loc 1 459 21 is_stmt 0 view .LVU205
 635 0102 FFF7FEFF 		bl	HAL_GetTick
 636              	.LVL50:
 459:Drivers/STM32H7xx_HAL_Driver/Src/stm32h7xx_hal_rcc.c **** 
 637              		.loc 1 459 21 view .LVU206
 638 0106 0546     		mov	r5, r0
 639              	.LVL51:
 462:Drivers/STM32H7xx_HAL_Driver/Src/stm32h7xx_hal_rcc.c ****         {
 640              		.loc 1 462 9 is_stmt 1 view .LVU207
 641              	.L47:
 462:Drivers/STM32H7xx_HAL_Driver/Src/stm32h7xx_hal_rcc.c ****         {
 642              		.loc 1 462 14 view .LVU208
 462:Drivers/STM32H7xx_HAL_Driver/Src/stm32h7xx_hal_rcc.c ****         {
 643              		.loc 1 462 15 is_stmt 0 view .LVU209
 644 0108 604B     		ldr	r3, .L147
 645 010a 1B68     		ldr	r3, [r3]
 462:Drivers/STM32H7xx_HAL_Driver/Src/stm32h7xx_hal_rcc.c ****         {
 646              		.loc 1 462 14 view .LVU210
 647 010c 13F4003F 		tst	r3, #131072
ARM GAS  C:\Users\cinar\AppData\Local\Temp\ccnsnn81.s 			page 22


 648 0110 A5D0     		beq	.L37
 464:Drivers/STM32H7xx_HAL_Driver/Src/stm32h7xx_hal_rcc.c ****           {
 649              		.loc 1 464 11 is_stmt 1 view .LVU211
 464:Drivers/STM32H7xx_HAL_Driver/Src/stm32h7xx_hal_rcc.c ****           {
 650              		.loc 1 464 26 is_stmt 0 view .LVU212
 651 0112 FFF7FEFF 		bl	HAL_GetTick
 652              	.LVL52:
 464:Drivers/STM32H7xx_HAL_Driver/Src/stm32h7xx_hal_rcc.c ****           {
 653              		.loc 1 464 40 view .LVU213
 654 0116 401B     		subs	r0, r0, r5
 464:Drivers/STM32H7xx_HAL_Driver/Src/stm32h7xx_hal_rcc.c ****           {
 655              		.loc 1 464 13 view .LVU214
 656 0118 6428     		cmp	r0, #100
 657 011a F5D9     		bls	.L47
 466:Drivers/STM32H7xx_HAL_Driver/Src/stm32h7xx_hal_rcc.c ****           }
 658              		.loc 1 466 20 view .LVU215
 659 011c 0320     		movs	r0, #3
 660 011e 18E2     		b	.L36
 661              	.LVL53:
 662              	.L134:
 466:Drivers/STM32H7xx_HAL_Driver/Src/stm32h7xx_hal_rcc.c ****           }
 663              		.loc 1 466 20 view .LVU216
 664              	.LBE4:
 665              	.LBB5:
 482:Drivers/STM32H7xx_HAL_Driver/Src/stm32h7xx_hal_rcc.c ****     {
 666              		.loc 1 482 87 discriminator 2 view .LVU217
 667 0120 12F0030F 		tst	r2, #3
 668 0124 A7D1     		bne	.L51
 669              	.L50:
 485:Drivers/STM32H7xx_HAL_Driver/Src/stm32h7xx_hal_rcc.c ****       {
 670              		.loc 1 485 7 is_stmt 1 view .LVU218
 485:Drivers/STM32H7xx_HAL_Driver/Src/stm32h7xx_hal_rcc.c ****       {
 671              		.loc 1 485 11 is_stmt 0 view .LVU219
 672 0126 594B     		ldr	r3, .L147
 673              	.LVL54:
 485:Drivers/STM32H7xx_HAL_Driver/Src/stm32h7xx_hal_rcc.c ****       {
 674              		.loc 1 485 11 view .LVU220
 675 0128 1B68     		ldr	r3, [r3]
 485:Drivers/STM32H7xx_HAL_Driver/Src/stm32h7xx_hal_rcc.c ****       {
 676              		.loc 1 485 9 view .LVU221
 677 012a 13F0040F 		tst	r3, #4
 678 012e 03D0     		beq	.L52
 485:Drivers/STM32H7xx_HAL_Driver/Src/stm32h7xx_hal_rcc.c ****       {
 679              		.loc 1 485 75 discriminator 1 view .LVU222
 680 0130 E368     		ldr	r3, [r4, #12]
 485:Drivers/STM32H7xx_HAL_Driver/Src/stm32h7xx_hal_rcc.c ****       {
 681              		.loc 1 485 54 discriminator 1 view .LVU223
 682 0132 002B     		cmp	r3, #0
 683 0134 00F00882 		beq	.L103
 684              	.L52:
 493:Drivers/STM32H7xx_HAL_Driver/Src/stm32h7xx_hal_rcc.c ****       }
 685              		.loc 1 493 9 is_stmt 1 view .LVU224
 686 0138 544A     		ldr	r2, .L147
 687              	.LVL55:
 493:Drivers/STM32H7xx_HAL_Driver/Src/stm32h7xx_hal_rcc.c ****       }
 688              		.loc 1 493 9 is_stmt 0 view .LVU225
 689 013a 5368     		ldr	r3, [r2, #4]
ARM GAS  C:\Users\cinar\AppData\Local\Temp\ccnsnn81.s 			page 23


 690 013c 23F0FE43 		bic	r3, r3, #2130706432
 691 0140 2169     		ldr	r1, [r4, #16]
 692 0142 43EA0163 		orr	r3, r3, r1, lsl #24
 693 0146 5360     		str	r3, [r2, #4]
 493:Drivers/STM32H7xx_HAL_Driver/Src/stm32h7xx_hal_rcc.c ****       }
 694              		.loc 1 493 86 is_stmt 1 view .LVU226
 695              	.L49:
 493:Drivers/STM32H7xx_HAL_Driver/Src/stm32h7xx_hal_rcc.c ****       }
 696              		.loc 1 493 86 is_stmt 0 view .LVU227
 697              	.LBE5:
 514:Drivers/STM32H7xx_HAL_Driver/Src/stm32h7xx_hal_rcc.c ****           }
 515:Drivers/STM32H7xx_HAL_Driver/Src/stm32h7xx_hal_rcc.c ****         }
 516:Drivers/STM32H7xx_HAL_Driver/Src/stm32h7xx_hal_rcc.c **** 
 517:Drivers/STM32H7xx_HAL_Driver/Src/stm32h7xx_hal_rcc.c ****         /* Adjusts the Internal High Speed oscillator (HSI) calibration value.*/
 518:Drivers/STM32H7xx_HAL_Driver/Src/stm32h7xx_hal_rcc.c ****         __HAL_RCC_HSI_CALIBRATIONVALUE_ADJUST(RCC_OscInitStruct->HSICalibrationValue);
 519:Drivers/STM32H7xx_HAL_Driver/Src/stm32h7xx_hal_rcc.c ****       }
 520:Drivers/STM32H7xx_HAL_Driver/Src/stm32h7xx_hal_rcc.c ****       else
 521:Drivers/STM32H7xx_HAL_Driver/Src/stm32h7xx_hal_rcc.c ****       {
 522:Drivers/STM32H7xx_HAL_Driver/Src/stm32h7xx_hal_rcc.c ****         /* Disable the Internal High Speed oscillator (HSI). */
 523:Drivers/STM32H7xx_HAL_Driver/Src/stm32h7xx_hal_rcc.c ****         __HAL_RCC_HSI_DISABLE();
 524:Drivers/STM32H7xx_HAL_Driver/Src/stm32h7xx_hal_rcc.c **** 
 525:Drivers/STM32H7xx_HAL_Driver/Src/stm32h7xx_hal_rcc.c ****         /* Get Start Tick*/
 526:Drivers/STM32H7xx_HAL_Driver/Src/stm32h7xx_hal_rcc.c ****         tickstart = HAL_GetTick();
 527:Drivers/STM32H7xx_HAL_Driver/Src/stm32h7xx_hal_rcc.c **** 
 528:Drivers/STM32H7xx_HAL_Driver/Src/stm32h7xx_hal_rcc.c ****         /* Wait till HSI is disabled */
 529:Drivers/STM32H7xx_HAL_Driver/Src/stm32h7xx_hal_rcc.c ****         while(__HAL_RCC_GET_FLAG(RCC_FLAG_HSIRDY) != 0U)
 530:Drivers/STM32H7xx_HAL_Driver/Src/stm32h7xx_hal_rcc.c ****         {
 531:Drivers/STM32H7xx_HAL_Driver/Src/stm32h7xx_hal_rcc.c ****           if((HAL_GetTick() - tickstart ) > HSI_TIMEOUT_VALUE)
 532:Drivers/STM32H7xx_HAL_Driver/Src/stm32h7xx_hal_rcc.c ****           {
 533:Drivers/STM32H7xx_HAL_Driver/Src/stm32h7xx_hal_rcc.c ****             return HAL_TIMEOUT;
 534:Drivers/STM32H7xx_HAL_Driver/Src/stm32h7xx_hal_rcc.c ****           }
 535:Drivers/STM32H7xx_HAL_Driver/Src/stm32h7xx_hal_rcc.c ****         }
 536:Drivers/STM32H7xx_HAL_Driver/Src/stm32h7xx_hal_rcc.c ****       }
 537:Drivers/STM32H7xx_HAL_Driver/Src/stm32h7xx_hal_rcc.c ****     }
 538:Drivers/STM32H7xx_HAL_Driver/Src/stm32h7xx_hal_rcc.c ****   }
 539:Drivers/STM32H7xx_HAL_Driver/Src/stm32h7xx_hal_rcc.c ****   /*----------------------------- CSI Configuration --------------------------*/
 540:Drivers/STM32H7xx_HAL_Driver/Src/stm32h7xx_hal_rcc.c ****   if(((RCC_OscInitStruct->OscillatorType) & RCC_OSCILLATORTYPE_CSI) == RCC_OSCILLATORTYPE_CSI)
 698              		.loc 1 540 3 is_stmt 1 view .LVU228
 699              		.loc 1 540 25 is_stmt 0 view .LVU229
 700 0148 2368     		ldr	r3, [r4]
 701              		.loc 1 540 5 view .LVU230
 702 014a 13F0100F 		tst	r3, #16
 703 014e 51D0     		beq	.L58
 704              	.LBB6:
 541:Drivers/STM32H7xx_HAL_Driver/Src/stm32h7xx_hal_rcc.c ****   {
 542:Drivers/STM32H7xx_HAL_Driver/Src/stm32h7xx_hal_rcc.c ****     /* Check the parameters */
 543:Drivers/STM32H7xx_HAL_Driver/Src/stm32h7xx_hal_rcc.c ****     assert_param(IS_RCC_CSI(RCC_OscInitStruct->CSIState));
 705              		.loc 1 543 5 is_stmt 1 view .LVU231
 544:Drivers/STM32H7xx_HAL_Driver/Src/stm32h7xx_hal_rcc.c ****     assert_param(IS_RCC_CSICALIBRATION_VALUE(RCC_OscInitStruct->CSICalibrationValue));
 706              		.loc 1 544 5 view .LVU232
 545:Drivers/STM32H7xx_HAL_Driver/Src/stm32h7xx_hal_rcc.c **** 
 546:Drivers/STM32H7xx_HAL_Driver/Src/stm32h7xx_hal_rcc.c ****     /* When the CSI is used as system clock it will not disabled */
 547:Drivers/STM32H7xx_HAL_Driver/Src/stm32h7xx_hal_rcc.c ****     const uint32_t temp_sysclksrc = __HAL_RCC_GET_SYSCLK_SOURCE();
 707              		.loc 1 547 5 view .LVU233
 708              		.loc 1 547 37 is_stmt 0 view .LVU234
 709 0150 4E4A     		ldr	r2, .L147
 710 0152 1369     		ldr	r3, [r2, #16]
ARM GAS  C:\Users\cinar\AppData\Local\Temp\ccnsnn81.s 			page 24


 711              		.loc 1 547 20 view .LVU235
 712 0154 03F03803 		and	r3, r3, #56
 713              	.LVL56:
 548:Drivers/STM32H7xx_HAL_Driver/Src/stm32h7xx_hal_rcc.c ****     const uint32_t temp_pllckselr = RCC->PLLCKSELR;
 714              		.loc 1 548 5 is_stmt 1 view .LVU236
 715              		.loc 1 548 20 is_stmt 0 view .LVU237
 716 0158 926A     		ldr	r2, [r2, #40]
 717              	.LVL57:
 549:Drivers/STM32H7xx_HAL_Driver/Src/stm32h7xx_hal_rcc.c ****     if((temp_sysclksrc == RCC_CFGR_SWS_CSI) || ((temp_sysclksrc == RCC_CFGR_SWS_PLL1) && ((temp_pll
 718              		.loc 1 549 5 is_stmt 1 view .LVU238
 719              		.loc 1 549 7 is_stmt 0 view .LVU239
 720 015a 082B     		cmp	r3, #8
 721 015c 39D0     		beq	.L59
 722              		.loc 1 549 45 discriminator 1 view .LVU240
 723 015e 182B     		cmp	r3, #24
 724 0160 33D0     		beq	.L137
 725              	.LVL58:
 726              	.L60:
 550:Drivers/STM32H7xx_HAL_Driver/Src/stm32h7xx_hal_rcc.c ****     {
 551:Drivers/STM32H7xx_HAL_Driver/Src/stm32h7xx_hal_rcc.c ****       /* When CSI is used as system clock it will not disabled */
 552:Drivers/STM32H7xx_HAL_Driver/Src/stm32h7xx_hal_rcc.c ****       if((__HAL_RCC_GET_FLAG(RCC_FLAG_CSIRDY) != 0U) && (RCC_OscInitStruct->CSIState != RCC_CSI_ON)
 553:Drivers/STM32H7xx_HAL_Driver/Src/stm32h7xx_hal_rcc.c ****       {
 554:Drivers/STM32H7xx_HAL_Driver/Src/stm32h7xx_hal_rcc.c ****         return HAL_ERROR;
 555:Drivers/STM32H7xx_HAL_Driver/Src/stm32h7xx_hal_rcc.c ****       }
 556:Drivers/STM32H7xx_HAL_Driver/Src/stm32h7xx_hal_rcc.c ****       /* Otherwise, just the calibration is allowed */
 557:Drivers/STM32H7xx_HAL_Driver/Src/stm32h7xx_hal_rcc.c ****       else
 558:Drivers/STM32H7xx_HAL_Driver/Src/stm32h7xx_hal_rcc.c ****       {
 559:Drivers/STM32H7xx_HAL_Driver/Src/stm32h7xx_hal_rcc.c ****         /* Adjusts the Internal High Speed oscillator (CSI) calibration value.*/
 560:Drivers/STM32H7xx_HAL_Driver/Src/stm32h7xx_hal_rcc.c ****         __HAL_RCC_CSI_CALIBRATIONVALUE_ADJUST(RCC_OscInitStruct->CSICalibrationValue);
 561:Drivers/STM32H7xx_HAL_Driver/Src/stm32h7xx_hal_rcc.c ****       }
 562:Drivers/STM32H7xx_HAL_Driver/Src/stm32h7xx_hal_rcc.c ****     }
 563:Drivers/STM32H7xx_HAL_Driver/Src/stm32h7xx_hal_rcc.c ****     else
 564:Drivers/STM32H7xx_HAL_Driver/Src/stm32h7xx_hal_rcc.c ****     {
 565:Drivers/STM32H7xx_HAL_Driver/Src/stm32h7xx_hal_rcc.c ****       /* Check the CSI State */
 566:Drivers/STM32H7xx_HAL_Driver/Src/stm32h7xx_hal_rcc.c ****       if((RCC_OscInitStruct->CSIState)!= RCC_CSI_OFF)
 727              		.loc 1 566 7 is_stmt 1 view .LVU241
 728              		.loc 1 566 28 is_stmt 0 view .LVU242
 729 0162 E369     		ldr	r3, [r4, #28]
 730              	.LVL59:
 731              		.loc 1 566 9 view .LVU243
 732 0164 002B     		cmp	r3, #0
 733 0166 68D0     		beq	.L62
 567:Drivers/STM32H7xx_HAL_Driver/Src/stm32h7xx_hal_rcc.c ****       {
 568:Drivers/STM32H7xx_HAL_Driver/Src/stm32h7xx_hal_rcc.c ****         /* Enable the Internal High Speed oscillator (CSI). */
 569:Drivers/STM32H7xx_HAL_Driver/Src/stm32h7xx_hal_rcc.c ****         __HAL_RCC_CSI_ENABLE();
 734              		.loc 1 569 9 is_stmt 1 view .LVU244
 735 0168 484A     		ldr	r2, .L147
 736 016a 1368     		ldr	r3, [r2]
 737 016c 43F08003 		orr	r3, r3, #128
 738 0170 1360     		str	r3, [r2]
 570:Drivers/STM32H7xx_HAL_Driver/Src/stm32h7xx_hal_rcc.c **** 
 571:Drivers/STM32H7xx_HAL_Driver/Src/stm32h7xx_hal_rcc.c ****         /* Get Start Tick*/
 572:Drivers/STM32H7xx_HAL_Driver/Src/stm32h7xx_hal_rcc.c ****         tickstart = HAL_GetTick();
 739              		.loc 1 572 9 view .LVU245
 740              		.loc 1 572 21 is_stmt 0 view .LVU246
 741 0172 FFF7FEFF 		bl	HAL_GetTick
 742              	.LVL60:
ARM GAS  C:\Users\cinar\AppData\Local\Temp\ccnsnn81.s 			page 25


 743 0176 0546     		mov	r5, r0
 744              	.LVL61:
 573:Drivers/STM32H7xx_HAL_Driver/Src/stm32h7xx_hal_rcc.c **** 
 574:Drivers/STM32H7xx_HAL_Driver/Src/stm32h7xx_hal_rcc.c ****         /* Wait till CSI is ready */
 575:Drivers/STM32H7xx_HAL_Driver/Src/stm32h7xx_hal_rcc.c ****         while(__HAL_RCC_GET_FLAG(RCC_FLAG_CSIRDY) == 0U)
 745              		.loc 1 575 9 is_stmt 1 view .LVU247
 746              	.L63:
 747              		.loc 1 575 14 view .LVU248
 748              		.loc 1 575 15 is_stmt 0 view .LVU249
 749 0178 444B     		ldr	r3, .L147
 750 017a 1B68     		ldr	r3, [r3]
 751              		.loc 1 575 14 view .LVU250
 752 017c 13F4807F 		tst	r3, #256
 753 0180 52D1     		bne	.L138
 576:Drivers/STM32H7xx_HAL_Driver/Src/stm32h7xx_hal_rcc.c ****         {
 577:Drivers/STM32H7xx_HAL_Driver/Src/stm32h7xx_hal_rcc.c ****           if((HAL_GetTick() - tickstart ) > CSI_TIMEOUT_VALUE)
 754              		.loc 1 577 11 is_stmt 1 view .LVU251
 755              		.loc 1 577 15 is_stmt 0 view .LVU252
 756 0182 FFF7FEFF 		bl	HAL_GetTick
 757              	.LVL62:
 758              		.loc 1 577 29 view .LVU253
 759 0186 401B     		subs	r0, r0, r5
 760              		.loc 1 577 13 view .LVU254
 761 0188 0228     		cmp	r0, #2
 762 018a F5D9     		bls	.L63
 578:Drivers/STM32H7xx_HAL_Driver/Src/stm32h7xx_hal_rcc.c ****           {
 579:Drivers/STM32H7xx_HAL_Driver/Src/stm32h7xx_hal_rcc.c ****             return HAL_TIMEOUT;
 763              		.loc 1 579 20 view .LVU255
 764 018c 0320     		movs	r0, #3
 765 018e E0E1     		b	.L36
 766              	.L135:
 767              		.loc 1 579 20 view .LVU256
 768              	.LBE6:
 769              	.LBB7:
 518:Drivers/STM32H7xx_HAL_Driver/Src/stm32h7xx_hal_rcc.c ****       }
 770              		.loc 1 518 9 is_stmt 1 view .LVU257
 771 0190 3E4A     		ldr	r2, .L147
 772 0192 5368     		ldr	r3, [r2, #4]
 773 0194 23F0FE43 		bic	r3, r3, #2130706432
 774 0198 2169     		ldr	r1, [r4, #16]
 775 019a 43EA0163 		orr	r3, r3, r1, lsl #24
 776 019e 5360     		str	r3, [r2, #4]
 518:Drivers/STM32H7xx_HAL_Driver/Src/stm32h7xx_hal_rcc.c ****       }
 777              		.loc 1 518 86 view .LVU258
 778 01a0 D2E7     		b	.L49
 779              	.LVL63:
 780              	.L53:
 523:Drivers/STM32H7xx_HAL_Driver/Src/stm32h7xx_hal_rcc.c **** 
 781              		.loc 1 523 9 view .LVU259
 782 01a2 3A4A     		ldr	r2, .L147
 783              	.LVL64:
 523:Drivers/STM32H7xx_HAL_Driver/Src/stm32h7xx_hal_rcc.c **** 
 784              		.loc 1 523 9 is_stmt 0 view .LVU260
 785 01a4 1368     		ldr	r3, [r2]
 786 01a6 23F00103 		bic	r3, r3, #1
 787 01aa 1360     		str	r3, [r2]
 526:Drivers/STM32H7xx_HAL_Driver/Src/stm32h7xx_hal_rcc.c **** 
ARM GAS  C:\Users\cinar\AppData\Local\Temp\ccnsnn81.s 			page 26


 788              		.loc 1 526 9 is_stmt 1 view .LVU261
 526:Drivers/STM32H7xx_HAL_Driver/Src/stm32h7xx_hal_rcc.c **** 
 789              		.loc 1 526 21 is_stmt 0 view .LVU262
 790 01ac FFF7FEFF 		bl	HAL_GetTick
 791              	.LVL65:
 792 01b0 0546     		mov	r5, r0
 793              	.LVL66:
 529:Drivers/STM32H7xx_HAL_Driver/Src/stm32h7xx_hal_rcc.c ****         {
 794              		.loc 1 529 9 is_stmt 1 view .LVU263
 795              	.L56:
 529:Drivers/STM32H7xx_HAL_Driver/Src/stm32h7xx_hal_rcc.c ****         {
 796              		.loc 1 529 14 view .LVU264
 529:Drivers/STM32H7xx_HAL_Driver/Src/stm32h7xx_hal_rcc.c ****         {
 797              		.loc 1 529 15 is_stmt 0 view .LVU265
 798 01b2 364B     		ldr	r3, .L147
 799 01b4 1B68     		ldr	r3, [r3]
 529:Drivers/STM32H7xx_HAL_Driver/Src/stm32h7xx_hal_rcc.c ****         {
 800              		.loc 1 529 14 view .LVU266
 801 01b6 13F0040F 		tst	r3, #4
 802 01ba C5D0     		beq	.L49
 531:Drivers/STM32H7xx_HAL_Driver/Src/stm32h7xx_hal_rcc.c ****           {
 803              		.loc 1 531 11 is_stmt 1 view .LVU267
 531:Drivers/STM32H7xx_HAL_Driver/Src/stm32h7xx_hal_rcc.c ****           {
 804              		.loc 1 531 15 is_stmt 0 view .LVU268
 805 01bc FFF7FEFF 		bl	HAL_GetTick
 806              	.LVL67:
 531:Drivers/STM32H7xx_HAL_Driver/Src/stm32h7xx_hal_rcc.c ****           {
 807              		.loc 1 531 29 view .LVU269
 808 01c0 401B     		subs	r0, r0, r5
 531:Drivers/STM32H7xx_HAL_Driver/Src/stm32h7xx_hal_rcc.c ****           {
 809              		.loc 1 531 13 view .LVU270
 810 01c2 0228     		cmp	r0, #2
 811 01c4 F5D9     		bls	.L56
 533:Drivers/STM32H7xx_HAL_Driver/Src/stm32h7xx_hal_rcc.c ****           }
 812              		.loc 1 533 20 view .LVU271
 813 01c6 0320     		movs	r0, #3
 814 01c8 C3E1     		b	.L36
 815              	.LVL68:
 816              	.L137:
 533:Drivers/STM32H7xx_HAL_Driver/Src/stm32h7xx_hal_rcc.c ****           }
 817              		.loc 1 533 20 view .LVU272
 818              	.LBE7:
 819              	.LBB8:
 549:Drivers/STM32H7xx_HAL_Driver/Src/stm32h7xx_hal_rcc.c ****     {
 820              		.loc 1 549 107 discriminator 2 view .LVU273
 821 01ca 02F00302 		and	r2, r2, #3
 822              	.LVL69:
 549:Drivers/STM32H7xx_HAL_Driver/Src/stm32h7xx_hal_rcc.c ****     {
 823              		.loc 1 549 87 discriminator 2 view .LVU274
 824 01ce 012A     		cmp	r2, #1
 825 01d0 C7D1     		bne	.L60
 826              	.L59:
 552:Drivers/STM32H7xx_HAL_Driver/Src/stm32h7xx_hal_rcc.c ****       {
 827              		.loc 1 552 7 is_stmt 1 view .LVU275
 552:Drivers/STM32H7xx_HAL_Driver/Src/stm32h7xx_hal_rcc.c ****       {
 828              		.loc 1 552 11 is_stmt 0 view .LVU276
 829 01d2 2E4B     		ldr	r3, .L147
ARM GAS  C:\Users\cinar\AppData\Local\Temp\ccnsnn81.s 			page 27


 830              	.LVL70:
 552:Drivers/STM32H7xx_HAL_Driver/Src/stm32h7xx_hal_rcc.c ****       {
 831              		.loc 1 552 11 view .LVU277
 832 01d4 1B68     		ldr	r3, [r3]
 552:Drivers/STM32H7xx_HAL_Driver/Src/stm32h7xx_hal_rcc.c ****       {
 833              		.loc 1 552 9 view .LVU278
 834 01d6 13F4807F 		tst	r3, #256
 835 01da 03D0     		beq	.L61
 552:Drivers/STM32H7xx_HAL_Driver/Src/stm32h7xx_hal_rcc.c ****       {
 836              		.loc 1 552 75 discriminator 1 view .LVU279
 837 01dc E369     		ldr	r3, [r4, #28]
 552:Drivers/STM32H7xx_HAL_Driver/Src/stm32h7xx_hal_rcc.c ****       {
 838              		.loc 1 552 54 discriminator 1 view .LVU280
 839 01de 802B     		cmp	r3, #128
 840 01e0 40F0B481 		bne	.L106
 841              	.L61:
 560:Drivers/STM32H7xx_HAL_Driver/Src/stm32h7xx_hal_rcc.c ****       }
 842              		.loc 1 560 9 is_stmt 1 view .LVU281
 560:Drivers/STM32H7xx_HAL_Driver/Src/stm32h7xx_hal_rcc.c ****       }
 843              		.loc 1 560 9 view .LVU282
 844 01e4 294A     		ldr	r2, .L147
 845 01e6 D368     		ldr	r3, [r2, #12]
 846 01e8 23F07C53 		bic	r3, r3, #1056964608
 847 01ec 216A     		ldr	r1, [r4, #32]
 848 01ee 43EA0163 		orr	r3, r3, r1, lsl #24
 849 01f2 D360     		str	r3, [r2, #12]
 560:Drivers/STM32H7xx_HAL_Driver/Src/stm32h7xx_hal_rcc.c ****       }
 850              		.loc 1 560 9 view .LVU283
 851              	.L58:
 560:Drivers/STM32H7xx_HAL_Driver/Src/stm32h7xx_hal_rcc.c ****       }
 852              		.loc 1 560 9 is_stmt 0 view .LVU284
 853              	.LBE8:
 580:Drivers/STM32H7xx_HAL_Driver/Src/stm32h7xx_hal_rcc.c ****           }
 581:Drivers/STM32H7xx_HAL_Driver/Src/stm32h7xx_hal_rcc.c ****         }
 582:Drivers/STM32H7xx_HAL_Driver/Src/stm32h7xx_hal_rcc.c **** 
 583:Drivers/STM32H7xx_HAL_Driver/Src/stm32h7xx_hal_rcc.c ****         /* Adjusts the Internal High Speed oscillator (CSI) calibration value.*/
 584:Drivers/STM32H7xx_HAL_Driver/Src/stm32h7xx_hal_rcc.c ****         __HAL_RCC_CSI_CALIBRATIONVALUE_ADJUST(RCC_OscInitStruct->CSICalibrationValue);
 585:Drivers/STM32H7xx_HAL_Driver/Src/stm32h7xx_hal_rcc.c ****       }
 586:Drivers/STM32H7xx_HAL_Driver/Src/stm32h7xx_hal_rcc.c ****       else
 587:Drivers/STM32H7xx_HAL_Driver/Src/stm32h7xx_hal_rcc.c ****       {
 588:Drivers/STM32H7xx_HAL_Driver/Src/stm32h7xx_hal_rcc.c ****         /* Disable the Internal High Speed oscillator (CSI). */
 589:Drivers/STM32H7xx_HAL_Driver/Src/stm32h7xx_hal_rcc.c ****         __HAL_RCC_CSI_DISABLE();
 590:Drivers/STM32H7xx_HAL_Driver/Src/stm32h7xx_hal_rcc.c **** 
 591:Drivers/STM32H7xx_HAL_Driver/Src/stm32h7xx_hal_rcc.c ****         /* Get Start Tick*/
 592:Drivers/STM32H7xx_HAL_Driver/Src/stm32h7xx_hal_rcc.c ****         tickstart = HAL_GetTick();
 593:Drivers/STM32H7xx_HAL_Driver/Src/stm32h7xx_hal_rcc.c **** 
 594:Drivers/STM32H7xx_HAL_Driver/Src/stm32h7xx_hal_rcc.c ****         /* Wait till CSI is disabled */
 595:Drivers/STM32H7xx_HAL_Driver/Src/stm32h7xx_hal_rcc.c ****         while(__HAL_RCC_GET_FLAG(RCC_FLAG_CSIRDY) != 0U)
 596:Drivers/STM32H7xx_HAL_Driver/Src/stm32h7xx_hal_rcc.c ****         {
 597:Drivers/STM32H7xx_HAL_Driver/Src/stm32h7xx_hal_rcc.c ****           if((HAL_GetTick() - tickstart ) > CSI_TIMEOUT_VALUE)
 598:Drivers/STM32H7xx_HAL_Driver/Src/stm32h7xx_hal_rcc.c ****           {
 599:Drivers/STM32H7xx_HAL_Driver/Src/stm32h7xx_hal_rcc.c ****             return HAL_TIMEOUT;
 600:Drivers/STM32H7xx_HAL_Driver/Src/stm32h7xx_hal_rcc.c ****           }
 601:Drivers/STM32H7xx_HAL_Driver/Src/stm32h7xx_hal_rcc.c ****         }
 602:Drivers/STM32H7xx_HAL_Driver/Src/stm32h7xx_hal_rcc.c ****       }
 603:Drivers/STM32H7xx_HAL_Driver/Src/stm32h7xx_hal_rcc.c ****     }
 604:Drivers/STM32H7xx_HAL_Driver/Src/stm32h7xx_hal_rcc.c ****   }
ARM GAS  C:\Users\cinar\AppData\Local\Temp\ccnsnn81.s 			page 28


 605:Drivers/STM32H7xx_HAL_Driver/Src/stm32h7xx_hal_rcc.c ****   /*------------------------------ LSI Configuration -------------------------*/
 606:Drivers/STM32H7xx_HAL_Driver/Src/stm32h7xx_hal_rcc.c ****   if(((RCC_OscInitStruct->OscillatorType) & RCC_OSCILLATORTYPE_LSI) == RCC_OSCILLATORTYPE_LSI)
 854              		.loc 1 606 3 is_stmt 1 view .LVU285
 855              		.loc 1 606 25 is_stmt 0 view .LVU286
 856 01f4 2368     		ldr	r3, [r4]
 857              		.loc 1 606 5 view .LVU287
 858 01f6 13F0080F 		tst	r3, #8
 859 01fa 49D0     		beq	.L67
 607:Drivers/STM32H7xx_HAL_Driver/Src/stm32h7xx_hal_rcc.c ****   {
 608:Drivers/STM32H7xx_HAL_Driver/Src/stm32h7xx_hal_rcc.c ****     /* Check the parameters */
 609:Drivers/STM32H7xx_HAL_Driver/Src/stm32h7xx_hal_rcc.c ****     assert_param(IS_RCC_LSI(RCC_OscInitStruct->LSIState));
 860              		.loc 1 609 5 is_stmt 1 view .LVU288
 610:Drivers/STM32H7xx_HAL_Driver/Src/stm32h7xx_hal_rcc.c **** 
 611:Drivers/STM32H7xx_HAL_Driver/Src/stm32h7xx_hal_rcc.c ****     /* Check the LSI State */
 612:Drivers/STM32H7xx_HAL_Driver/Src/stm32h7xx_hal_rcc.c ****     if((RCC_OscInitStruct->LSIState)!= RCC_LSI_OFF)
 861              		.loc 1 612 5 view .LVU289
 862              		.loc 1 612 26 is_stmt 0 view .LVU290
 863 01fc 6369     		ldr	r3, [r4, #20]
 864              		.loc 1 612 7 view .LVU291
 865 01fe 83B3     		cbz	r3, .L68
 613:Drivers/STM32H7xx_HAL_Driver/Src/stm32h7xx_hal_rcc.c ****     {
 614:Drivers/STM32H7xx_HAL_Driver/Src/stm32h7xx_hal_rcc.c ****       /* Enable the Internal Low Speed oscillator (LSI). */
 615:Drivers/STM32H7xx_HAL_Driver/Src/stm32h7xx_hal_rcc.c ****       __HAL_RCC_LSI_ENABLE();
 866              		.loc 1 615 7 is_stmt 1 view .LVU292
 867 0200 224A     		ldr	r2, .L147
 868 0202 536F     		ldr	r3, [r2, #116]
 869 0204 43F00103 		orr	r3, r3, #1
 870 0208 5367     		str	r3, [r2, #116]
 616:Drivers/STM32H7xx_HAL_Driver/Src/stm32h7xx_hal_rcc.c **** 
 617:Drivers/STM32H7xx_HAL_Driver/Src/stm32h7xx_hal_rcc.c ****       /* Get Start Tick*/
 618:Drivers/STM32H7xx_HAL_Driver/Src/stm32h7xx_hal_rcc.c ****       tickstart = HAL_GetTick();
 871              		.loc 1 618 7 view .LVU293
 872              		.loc 1 618 19 is_stmt 0 view .LVU294
 873 020a FFF7FEFF 		bl	HAL_GetTick
 874              	.LVL71:
 875 020e 0546     		mov	r5, r0
 876              	.LVL72:
 619:Drivers/STM32H7xx_HAL_Driver/Src/stm32h7xx_hal_rcc.c **** 
 620:Drivers/STM32H7xx_HAL_Driver/Src/stm32h7xx_hal_rcc.c ****       /* Wait till LSI is ready */
 621:Drivers/STM32H7xx_HAL_Driver/Src/stm32h7xx_hal_rcc.c ****       while(__HAL_RCC_GET_FLAG(RCC_FLAG_LSIRDY) == 0U)
 877              		.loc 1 621 7 is_stmt 1 view .LVU295
 878              	.L69:
 879              		.loc 1 621 12 view .LVU296
 880              		.loc 1 621 13 is_stmt 0 view .LVU297
 881 0210 1E4B     		ldr	r3, .L147
 882 0212 5B6F     		ldr	r3, [r3, #116]
 883              		.loc 1 621 12 view .LVU298
 884 0214 13F0020F 		tst	r3, #2
 885 0218 3AD1     		bne	.L67
 622:Drivers/STM32H7xx_HAL_Driver/Src/stm32h7xx_hal_rcc.c ****       {
 623:Drivers/STM32H7xx_HAL_Driver/Src/stm32h7xx_hal_rcc.c ****         if((HAL_GetTick() - tickstart ) > LSI_TIMEOUT_VALUE)
 886              		.loc 1 623 9 is_stmt 1 view .LVU299
 887              		.loc 1 623 13 is_stmt 0 view .LVU300
 888 021a FFF7FEFF 		bl	HAL_GetTick
 889              	.LVL73:
 890              		.loc 1 623 27 view .LVU301
 891 021e 401B     		subs	r0, r0, r5
ARM GAS  C:\Users\cinar\AppData\Local\Temp\ccnsnn81.s 			page 29


 892              		.loc 1 623 11 view .LVU302
 893 0220 0228     		cmp	r0, #2
 894 0222 F5D9     		bls	.L69
 624:Drivers/STM32H7xx_HAL_Driver/Src/stm32h7xx_hal_rcc.c ****         {
 625:Drivers/STM32H7xx_HAL_Driver/Src/stm32h7xx_hal_rcc.c ****           return HAL_TIMEOUT;
 895              		.loc 1 625 18 view .LVU303
 896 0224 0320     		movs	r0, #3
 897 0226 94E1     		b	.L36
 898              	.L138:
 899              	.LBB9:
 584:Drivers/STM32H7xx_HAL_Driver/Src/stm32h7xx_hal_rcc.c ****       }
 900              		.loc 1 584 9 is_stmt 1 view .LVU304
 584:Drivers/STM32H7xx_HAL_Driver/Src/stm32h7xx_hal_rcc.c ****       }
 901              		.loc 1 584 9 view .LVU305
 902 0228 184A     		ldr	r2, .L147
 903 022a D368     		ldr	r3, [r2, #12]
 904 022c 23F07C53 		bic	r3, r3, #1056964608
 905 0230 216A     		ldr	r1, [r4, #32]
 906 0232 43EA0163 		orr	r3, r3, r1, lsl #24
 907 0236 D360     		str	r3, [r2, #12]
 584:Drivers/STM32H7xx_HAL_Driver/Src/stm32h7xx_hal_rcc.c ****       }
 908              		.loc 1 584 9 view .LVU306
 909 0238 DCE7     		b	.L58
 910              	.LVL74:
 911              	.L62:
 589:Drivers/STM32H7xx_HAL_Driver/Src/stm32h7xx_hal_rcc.c **** 
 912              		.loc 1 589 9 view .LVU307
 913 023a 144A     		ldr	r2, .L147
 914 023c 1368     		ldr	r3, [r2]
 915 023e 23F08003 		bic	r3, r3, #128
 916 0242 1360     		str	r3, [r2]
 592:Drivers/STM32H7xx_HAL_Driver/Src/stm32h7xx_hal_rcc.c **** 
 917              		.loc 1 592 9 view .LVU308
 592:Drivers/STM32H7xx_HAL_Driver/Src/stm32h7xx_hal_rcc.c **** 
 918              		.loc 1 592 21 is_stmt 0 view .LVU309
 919 0244 FFF7FEFF 		bl	HAL_GetTick
 920              	.LVL75:
 921 0248 0546     		mov	r5, r0
 922              	.LVL76:
 595:Drivers/STM32H7xx_HAL_Driver/Src/stm32h7xx_hal_rcc.c ****         {
 923              		.loc 1 595 9 is_stmt 1 view .LVU310
 924              	.L65:
 595:Drivers/STM32H7xx_HAL_Driver/Src/stm32h7xx_hal_rcc.c ****         {
 925              		.loc 1 595 14 view .LVU311
 595:Drivers/STM32H7xx_HAL_Driver/Src/stm32h7xx_hal_rcc.c ****         {
 926              		.loc 1 595 15 is_stmt 0 view .LVU312
 927 024a 104B     		ldr	r3, .L147
 928 024c 1B68     		ldr	r3, [r3]
 595:Drivers/STM32H7xx_HAL_Driver/Src/stm32h7xx_hal_rcc.c ****         {
 929              		.loc 1 595 14 view .LVU313
 930 024e 13F4807F 		tst	r3, #256
 931 0252 CFD0     		beq	.L58
 597:Drivers/STM32H7xx_HAL_Driver/Src/stm32h7xx_hal_rcc.c ****           {
 932              		.loc 1 597 11 is_stmt 1 view .LVU314
 597:Drivers/STM32H7xx_HAL_Driver/Src/stm32h7xx_hal_rcc.c ****           {
 933              		.loc 1 597 15 is_stmt 0 view .LVU315
 934 0254 FFF7FEFF 		bl	HAL_GetTick
ARM GAS  C:\Users\cinar\AppData\Local\Temp\ccnsnn81.s 			page 30


 935              	.LVL77:
 597:Drivers/STM32H7xx_HAL_Driver/Src/stm32h7xx_hal_rcc.c ****           {
 936              		.loc 1 597 29 view .LVU316
 937 0258 401B     		subs	r0, r0, r5
 597:Drivers/STM32H7xx_HAL_Driver/Src/stm32h7xx_hal_rcc.c ****           {
 938              		.loc 1 597 13 view .LVU317
 939 025a 0228     		cmp	r0, #2
 940 025c F5D9     		bls	.L65
 599:Drivers/STM32H7xx_HAL_Driver/Src/stm32h7xx_hal_rcc.c ****           }
 941              		.loc 1 599 20 view .LVU318
 942 025e 0320     		movs	r0, #3
 943 0260 77E1     		b	.L36
 944              	.LVL78:
 945              	.L68:
 599:Drivers/STM32H7xx_HAL_Driver/Src/stm32h7xx_hal_rcc.c ****           }
 946              		.loc 1 599 20 view .LVU319
 947              	.LBE9:
 626:Drivers/STM32H7xx_HAL_Driver/Src/stm32h7xx_hal_rcc.c ****         }
 627:Drivers/STM32H7xx_HAL_Driver/Src/stm32h7xx_hal_rcc.c ****       }
 628:Drivers/STM32H7xx_HAL_Driver/Src/stm32h7xx_hal_rcc.c ****     }
 629:Drivers/STM32H7xx_HAL_Driver/Src/stm32h7xx_hal_rcc.c ****     else
 630:Drivers/STM32H7xx_HAL_Driver/Src/stm32h7xx_hal_rcc.c ****     {
 631:Drivers/STM32H7xx_HAL_Driver/Src/stm32h7xx_hal_rcc.c ****       /* Disable the Internal Low Speed oscillator (LSI). */
 632:Drivers/STM32H7xx_HAL_Driver/Src/stm32h7xx_hal_rcc.c ****       __HAL_RCC_LSI_DISABLE();
 948              		.loc 1 632 7 is_stmt 1 view .LVU320
 949 0262 0A4A     		ldr	r2, .L147
 950 0264 536F     		ldr	r3, [r2, #116]
 951 0266 23F00103 		bic	r3, r3, #1
 952 026a 5367     		str	r3, [r2, #116]
 633:Drivers/STM32H7xx_HAL_Driver/Src/stm32h7xx_hal_rcc.c **** 
 634:Drivers/STM32H7xx_HAL_Driver/Src/stm32h7xx_hal_rcc.c ****       /* Get Start Tick*/
 635:Drivers/STM32H7xx_HAL_Driver/Src/stm32h7xx_hal_rcc.c ****       tickstart = HAL_GetTick();
 953              		.loc 1 635 7 view .LVU321
 954              		.loc 1 635 19 is_stmt 0 view .LVU322
 955 026c FFF7FEFF 		bl	HAL_GetTick
 956              	.LVL79:
 957 0270 0546     		mov	r5, r0
 958              	.LVL80:
 636:Drivers/STM32H7xx_HAL_Driver/Src/stm32h7xx_hal_rcc.c **** 
 637:Drivers/STM32H7xx_HAL_Driver/Src/stm32h7xx_hal_rcc.c ****       /* Wait till LSI is ready */
 638:Drivers/STM32H7xx_HAL_Driver/Src/stm32h7xx_hal_rcc.c ****       while(__HAL_RCC_GET_FLAG(RCC_FLAG_LSIRDY) != 0U)
 959              		.loc 1 638 7 is_stmt 1 view .LVU323
 960              	.L71:
 961              		.loc 1 638 12 view .LVU324
 962              		.loc 1 638 13 is_stmt 0 view .LVU325
 963 0272 064B     		ldr	r3, .L147
 964 0274 5B6F     		ldr	r3, [r3, #116]
 965              		.loc 1 638 12 view .LVU326
 966 0276 13F0020F 		tst	r3, #2
 967 027a 09D0     		beq	.L67
 639:Drivers/STM32H7xx_HAL_Driver/Src/stm32h7xx_hal_rcc.c ****       {
 640:Drivers/STM32H7xx_HAL_Driver/Src/stm32h7xx_hal_rcc.c ****         if((HAL_GetTick() - tickstart ) > LSI_TIMEOUT_VALUE)
 968              		.loc 1 640 9 is_stmt 1 view .LVU327
 969              		.loc 1 640 13 is_stmt 0 view .LVU328
 970 027c FFF7FEFF 		bl	HAL_GetTick
 971              	.LVL81:
 972              		.loc 1 640 27 view .LVU329
ARM GAS  C:\Users\cinar\AppData\Local\Temp\ccnsnn81.s 			page 31


 973 0280 401B     		subs	r0, r0, r5
 974              		.loc 1 640 11 view .LVU330
 975 0282 0228     		cmp	r0, #2
 976 0284 F5D9     		bls	.L71
 641:Drivers/STM32H7xx_HAL_Driver/Src/stm32h7xx_hal_rcc.c ****         {
 642:Drivers/STM32H7xx_HAL_Driver/Src/stm32h7xx_hal_rcc.c ****           return HAL_TIMEOUT;
 977              		.loc 1 642 18 view .LVU331
 978 0286 0320     		movs	r0, #3
 979 0288 63E1     		b	.L36
 980              	.L148:
 981 028a 00BF     		.align	2
 982              	.L147:
 983 028c 00440258 		.word	1476543488
 984              	.LVL82:
 985              	.L67:
 643:Drivers/STM32H7xx_HAL_Driver/Src/stm32h7xx_hal_rcc.c ****         }
 644:Drivers/STM32H7xx_HAL_Driver/Src/stm32h7xx_hal_rcc.c ****       }
 645:Drivers/STM32H7xx_HAL_Driver/Src/stm32h7xx_hal_rcc.c ****     }
 646:Drivers/STM32H7xx_HAL_Driver/Src/stm32h7xx_hal_rcc.c ****   }
 647:Drivers/STM32H7xx_HAL_Driver/Src/stm32h7xx_hal_rcc.c **** 
 648:Drivers/STM32H7xx_HAL_Driver/Src/stm32h7xx_hal_rcc.c ****   /*------------------------------ HSI48 Configuration -------------------------*/
 649:Drivers/STM32H7xx_HAL_Driver/Src/stm32h7xx_hal_rcc.c ****   if(((RCC_OscInitStruct->OscillatorType) & RCC_OSCILLATORTYPE_HSI48) == RCC_OSCILLATORTYPE_HSI48)
 986              		.loc 1 649 3 is_stmt 1 view .LVU332
 987              		.loc 1 649 25 is_stmt 0 view .LVU333
 988 0290 2368     		ldr	r3, [r4]
 989              		.loc 1 649 5 view .LVU334
 990 0292 13F0200F 		tst	r3, #32
 991 0296 29D0     		beq	.L73
 650:Drivers/STM32H7xx_HAL_Driver/Src/stm32h7xx_hal_rcc.c ****   {
 651:Drivers/STM32H7xx_HAL_Driver/Src/stm32h7xx_hal_rcc.c ****     /* Check the parameters */
 652:Drivers/STM32H7xx_HAL_Driver/Src/stm32h7xx_hal_rcc.c ****     assert_param(IS_RCC_HSI48(RCC_OscInitStruct->HSI48State));
 992              		.loc 1 652 5 is_stmt 1 view .LVU335
 653:Drivers/STM32H7xx_HAL_Driver/Src/stm32h7xx_hal_rcc.c **** 
 654:Drivers/STM32H7xx_HAL_Driver/Src/stm32h7xx_hal_rcc.c ****     /* Check the HSI48 State */
 655:Drivers/STM32H7xx_HAL_Driver/Src/stm32h7xx_hal_rcc.c ****     if((RCC_OscInitStruct->HSI48State)!= RCC_HSI48_OFF)
 993              		.loc 1 655 5 view .LVU336
 994              		.loc 1 655 26 is_stmt 0 view .LVU337
 995 0298 A369     		ldr	r3, [r4, #24]
 996              		.loc 1 655 7 view .LVU338
 997 029a 9BB1     		cbz	r3, .L74
 656:Drivers/STM32H7xx_HAL_Driver/Src/stm32h7xx_hal_rcc.c ****     {
 657:Drivers/STM32H7xx_HAL_Driver/Src/stm32h7xx_hal_rcc.c ****       /* Enable the Internal Low Speed oscillator (HSI48). */
 658:Drivers/STM32H7xx_HAL_Driver/Src/stm32h7xx_hal_rcc.c ****       __HAL_RCC_HSI48_ENABLE();
 998              		.loc 1 658 7 is_stmt 1 view .LVU339
 999 029c A54A     		ldr	r2, .L149
 1000 029e 1368     		ldr	r3, [r2]
 1001 02a0 43F48053 		orr	r3, r3, #4096
 1002 02a4 1360     		str	r3, [r2]
 1003              		.loc 1 658 31 view .LVU340
 659:Drivers/STM32H7xx_HAL_Driver/Src/stm32h7xx_hal_rcc.c **** 
 660:Drivers/STM32H7xx_HAL_Driver/Src/stm32h7xx_hal_rcc.c ****       /* Get time-out */
 661:Drivers/STM32H7xx_HAL_Driver/Src/stm32h7xx_hal_rcc.c ****       tickstart = HAL_GetTick();
 1004              		.loc 1 661 7 view .LVU341
 1005              		.loc 1 661 19 is_stmt 0 view .LVU342
 1006 02a6 FFF7FEFF 		bl	HAL_GetTick
 1007              	.LVL83:
 1008 02aa 0546     		mov	r5, r0
ARM GAS  C:\Users\cinar\AppData\Local\Temp\ccnsnn81.s 			page 32


 1009              	.LVL84:
 662:Drivers/STM32H7xx_HAL_Driver/Src/stm32h7xx_hal_rcc.c **** 
 663:Drivers/STM32H7xx_HAL_Driver/Src/stm32h7xx_hal_rcc.c ****       /* Wait till HSI48 is ready */
 664:Drivers/STM32H7xx_HAL_Driver/Src/stm32h7xx_hal_rcc.c ****       while(__HAL_RCC_GET_FLAG(RCC_FLAG_HSI48RDY) == 0U)
 1010              		.loc 1 664 7 is_stmt 1 view .LVU343
 1011              	.L75:
 1012              		.loc 1 664 12 view .LVU344
 1013              		.loc 1 664 13 is_stmt 0 view .LVU345
 1014 02ac A14B     		ldr	r3, .L149
 1015 02ae 1B68     		ldr	r3, [r3]
 1016              		.loc 1 664 12 view .LVU346
 1017 02b0 13F4005F 		tst	r3, #8192
 1018 02b4 1AD1     		bne	.L73
 665:Drivers/STM32H7xx_HAL_Driver/Src/stm32h7xx_hal_rcc.c ****       {
 666:Drivers/STM32H7xx_HAL_Driver/Src/stm32h7xx_hal_rcc.c ****         if((HAL_GetTick() - tickstart ) > HSI48_TIMEOUT_VALUE)
 1019              		.loc 1 666 9 is_stmt 1 view .LVU347
 1020              		.loc 1 666 13 is_stmt 0 view .LVU348
 1021 02b6 FFF7FEFF 		bl	HAL_GetTick
 1022              	.LVL85:
 1023              		.loc 1 666 27 view .LVU349
 1024 02ba 401B     		subs	r0, r0, r5
 1025              		.loc 1 666 11 view .LVU350
 1026 02bc 0228     		cmp	r0, #2
 1027 02be F5D9     		bls	.L75
 667:Drivers/STM32H7xx_HAL_Driver/Src/stm32h7xx_hal_rcc.c ****         {
 668:Drivers/STM32H7xx_HAL_Driver/Src/stm32h7xx_hal_rcc.c ****           return HAL_TIMEOUT;
 1028              		.loc 1 668 18 view .LVU351
 1029 02c0 0320     		movs	r0, #3
 1030 02c2 46E1     		b	.L36
 1031              	.LVL86:
 1032              	.L74:
 669:Drivers/STM32H7xx_HAL_Driver/Src/stm32h7xx_hal_rcc.c ****         }
 670:Drivers/STM32H7xx_HAL_Driver/Src/stm32h7xx_hal_rcc.c ****       }
 671:Drivers/STM32H7xx_HAL_Driver/Src/stm32h7xx_hal_rcc.c ****     }
 672:Drivers/STM32H7xx_HAL_Driver/Src/stm32h7xx_hal_rcc.c ****     else
 673:Drivers/STM32H7xx_HAL_Driver/Src/stm32h7xx_hal_rcc.c ****     {
 674:Drivers/STM32H7xx_HAL_Driver/Src/stm32h7xx_hal_rcc.c ****       /* Disable the Internal Low Speed oscillator (HSI48). */
 675:Drivers/STM32H7xx_HAL_Driver/Src/stm32h7xx_hal_rcc.c ****       __HAL_RCC_HSI48_DISABLE();
 1033              		.loc 1 675 7 is_stmt 1 view .LVU352
 1034 02c4 9B4A     		ldr	r2, .L149
 1035 02c6 1368     		ldr	r3, [r2]
 1036 02c8 23F48053 		bic	r3, r3, #4096
 1037 02cc 1360     		str	r3, [r2]
 1038              		.loc 1 675 32 view .LVU353
 676:Drivers/STM32H7xx_HAL_Driver/Src/stm32h7xx_hal_rcc.c **** 
 677:Drivers/STM32H7xx_HAL_Driver/Src/stm32h7xx_hal_rcc.c ****       /* Get time-out */
 678:Drivers/STM32H7xx_HAL_Driver/Src/stm32h7xx_hal_rcc.c ****       tickstart = HAL_GetTick();
 1039              		.loc 1 678 7 view .LVU354
 1040              		.loc 1 678 19 is_stmt 0 view .LVU355
 1041 02ce FFF7FEFF 		bl	HAL_GetTick
 1042              	.LVL87:
 1043 02d2 0546     		mov	r5, r0
 1044              	.LVL88:
 679:Drivers/STM32H7xx_HAL_Driver/Src/stm32h7xx_hal_rcc.c **** 
 680:Drivers/STM32H7xx_HAL_Driver/Src/stm32h7xx_hal_rcc.c ****       /* Wait till HSI48 is ready */
 681:Drivers/STM32H7xx_HAL_Driver/Src/stm32h7xx_hal_rcc.c ****       while(__HAL_RCC_GET_FLAG(RCC_FLAG_HSI48RDY) != 0U)
 1045              		.loc 1 681 7 is_stmt 1 view .LVU356
ARM GAS  C:\Users\cinar\AppData\Local\Temp\ccnsnn81.s 			page 33


 1046              	.L77:
 1047              		.loc 1 681 12 view .LVU357
 1048              		.loc 1 681 13 is_stmt 0 view .LVU358
 1049 02d4 974B     		ldr	r3, .L149
 1050 02d6 1B68     		ldr	r3, [r3]
 1051              		.loc 1 681 12 view .LVU359
 1052 02d8 13F4005F 		tst	r3, #8192
 1053 02dc 06D0     		beq	.L73
 682:Drivers/STM32H7xx_HAL_Driver/Src/stm32h7xx_hal_rcc.c ****       {
 683:Drivers/STM32H7xx_HAL_Driver/Src/stm32h7xx_hal_rcc.c ****         if((HAL_GetTick() - tickstart ) > HSI48_TIMEOUT_VALUE)
 1054              		.loc 1 683 9 is_stmt 1 view .LVU360
 1055              		.loc 1 683 13 is_stmt 0 view .LVU361
 1056 02de FFF7FEFF 		bl	HAL_GetTick
 1057              	.LVL89:
 1058              		.loc 1 683 27 view .LVU362
 1059 02e2 401B     		subs	r0, r0, r5
 1060              		.loc 1 683 11 view .LVU363
 1061 02e4 0228     		cmp	r0, #2
 1062 02e6 F5D9     		bls	.L77
 684:Drivers/STM32H7xx_HAL_Driver/Src/stm32h7xx_hal_rcc.c ****         {
 685:Drivers/STM32H7xx_HAL_Driver/Src/stm32h7xx_hal_rcc.c ****           return HAL_TIMEOUT;
 1063              		.loc 1 685 18 view .LVU364
 1064 02e8 0320     		movs	r0, #3
 1065 02ea 32E1     		b	.L36
 1066              	.LVL90:
 1067              	.L73:
 686:Drivers/STM32H7xx_HAL_Driver/Src/stm32h7xx_hal_rcc.c ****         }
 687:Drivers/STM32H7xx_HAL_Driver/Src/stm32h7xx_hal_rcc.c ****       }
 688:Drivers/STM32H7xx_HAL_Driver/Src/stm32h7xx_hal_rcc.c ****     }
 689:Drivers/STM32H7xx_HAL_Driver/Src/stm32h7xx_hal_rcc.c ****   }
 690:Drivers/STM32H7xx_HAL_Driver/Src/stm32h7xx_hal_rcc.c ****   /*------------------------------ LSE Configuration -------------------------*/
 691:Drivers/STM32H7xx_HAL_Driver/Src/stm32h7xx_hal_rcc.c ****   if(((RCC_OscInitStruct->OscillatorType) & RCC_OSCILLATORTYPE_LSE) == RCC_OSCILLATORTYPE_LSE)
 1068              		.loc 1 691 3 is_stmt 1 view .LVU365
 1069              		.loc 1 691 25 is_stmt 0 view .LVU366
 1070 02ec 2368     		ldr	r3, [r4]
 1071              		.loc 1 691 5 view .LVU367
 1072 02ee 13F0040F 		tst	r3, #4
 1073 02f2 21D1     		bne	.L139
 1074              	.L79:
 692:Drivers/STM32H7xx_HAL_Driver/Src/stm32h7xx_hal_rcc.c ****   {
 693:Drivers/STM32H7xx_HAL_Driver/Src/stm32h7xx_hal_rcc.c ****     /* Check the parameters */
 694:Drivers/STM32H7xx_HAL_Driver/Src/stm32h7xx_hal_rcc.c ****     assert_param(IS_RCC_LSE(RCC_OscInitStruct->LSEState));
 695:Drivers/STM32H7xx_HAL_Driver/Src/stm32h7xx_hal_rcc.c **** 
 696:Drivers/STM32H7xx_HAL_Driver/Src/stm32h7xx_hal_rcc.c ****     /* Enable write access to Backup domain */
 697:Drivers/STM32H7xx_HAL_Driver/Src/stm32h7xx_hal_rcc.c ****     PWR->CR1 |= PWR_CR1_DBP;
 698:Drivers/STM32H7xx_HAL_Driver/Src/stm32h7xx_hal_rcc.c **** 
 699:Drivers/STM32H7xx_HAL_Driver/Src/stm32h7xx_hal_rcc.c ****     /* Wait for Backup domain Write protection disable */
 700:Drivers/STM32H7xx_HAL_Driver/Src/stm32h7xx_hal_rcc.c ****     tickstart = HAL_GetTick();
 701:Drivers/STM32H7xx_HAL_Driver/Src/stm32h7xx_hal_rcc.c **** 
 702:Drivers/STM32H7xx_HAL_Driver/Src/stm32h7xx_hal_rcc.c ****     while((PWR->CR1 & PWR_CR1_DBP) == 0U)
 703:Drivers/STM32H7xx_HAL_Driver/Src/stm32h7xx_hal_rcc.c ****     {
 704:Drivers/STM32H7xx_HAL_Driver/Src/stm32h7xx_hal_rcc.c ****       if((HAL_GetTick() - tickstart ) > RCC_DBP_TIMEOUT_VALUE)
 705:Drivers/STM32H7xx_HAL_Driver/Src/stm32h7xx_hal_rcc.c ****       {
 706:Drivers/STM32H7xx_HAL_Driver/Src/stm32h7xx_hal_rcc.c ****         return HAL_TIMEOUT;
 707:Drivers/STM32H7xx_HAL_Driver/Src/stm32h7xx_hal_rcc.c ****       }
 708:Drivers/STM32H7xx_HAL_Driver/Src/stm32h7xx_hal_rcc.c ****     }
 709:Drivers/STM32H7xx_HAL_Driver/Src/stm32h7xx_hal_rcc.c **** 
ARM GAS  C:\Users\cinar\AppData\Local\Temp\ccnsnn81.s 			page 34


 710:Drivers/STM32H7xx_HAL_Driver/Src/stm32h7xx_hal_rcc.c ****     /* Set the new LSE configuration -----------------------------------------*/
 711:Drivers/STM32H7xx_HAL_Driver/Src/stm32h7xx_hal_rcc.c ****     __HAL_RCC_LSE_CONFIG(RCC_OscInitStruct->LSEState);
 712:Drivers/STM32H7xx_HAL_Driver/Src/stm32h7xx_hal_rcc.c ****     /* Check the LSE State */
 713:Drivers/STM32H7xx_HAL_Driver/Src/stm32h7xx_hal_rcc.c ****     if((RCC_OscInitStruct->LSEState) != RCC_LSE_OFF)
 714:Drivers/STM32H7xx_HAL_Driver/Src/stm32h7xx_hal_rcc.c ****     {
 715:Drivers/STM32H7xx_HAL_Driver/Src/stm32h7xx_hal_rcc.c ****       /* Get Start Tick*/
 716:Drivers/STM32H7xx_HAL_Driver/Src/stm32h7xx_hal_rcc.c ****       tickstart = HAL_GetTick();
 717:Drivers/STM32H7xx_HAL_Driver/Src/stm32h7xx_hal_rcc.c **** 
 718:Drivers/STM32H7xx_HAL_Driver/Src/stm32h7xx_hal_rcc.c ****       /* Wait till LSE is ready */
 719:Drivers/STM32H7xx_HAL_Driver/Src/stm32h7xx_hal_rcc.c ****       while(__HAL_RCC_GET_FLAG(RCC_FLAG_LSERDY) == 0U)
 720:Drivers/STM32H7xx_HAL_Driver/Src/stm32h7xx_hal_rcc.c ****       {
 721:Drivers/STM32H7xx_HAL_Driver/Src/stm32h7xx_hal_rcc.c ****         if((HAL_GetTick() - tickstart ) > RCC_LSE_TIMEOUT_VALUE)
 722:Drivers/STM32H7xx_HAL_Driver/Src/stm32h7xx_hal_rcc.c ****         {
 723:Drivers/STM32H7xx_HAL_Driver/Src/stm32h7xx_hal_rcc.c ****           return HAL_TIMEOUT;
 724:Drivers/STM32H7xx_HAL_Driver/Src/stm32h7xx_hal_rcc.c ****         }
 725:Drivers/STM32H7xx_HAL_Driver/Src/stm32h7xx_hal_rcc.c ****       }
 726:Drivers/STM32H7xx_HAL_Driver/Src/stm32h7xx_hal_rcc.c ****     }
 727:Drivers/STM32H7xx_HAL_Driver/Src/stm32h7xx_hal_rcc.c ****     else
 728:Drivers/STM32H7xx_HAL_Driver/Src/stm32h7xx_hal_rcc.c ****     {
 729:Drivers/STM32H7xx_HAL_Driver/Src/stm32h7xx_hal_rcc.c ****       /* Get Start Tick*/
 730:Drivers/STM32H7xx_HAL_Driver/Src/stm32h7xx_hal_rcc.c ****       tickstart = HAL_GetTick();
 731:Drivers/STM32H7xx_HAL_Driver/Src/stm32h7xx_hal_rcc.c **** 
 732:Drivers/STM32H7xx_HAL_Driver/Src/stm32h7xx_hal_rcc.c ****       /* Wait till LSE is disabled */
 733:Drivers/STM32H7xx_HAL_Driver/Src/stm32h7xx_hal_rcc.c ****       while(__HAL_RCC_GET_FLAG(RCC_FLAG_LSERDY) != 0U)
 734:Drivers/STM32H7xx_HAL_Driver/Src/stm32h7xx_hal_rcc.c ****       {
 735:Drivers/STM32H7xx_HAL_Driver/Src/stm32h7xx_hal_rcc.c ****         if((HAL_GetTick() - tickstart ) > RCC_LSE_TIMEOUT_VALUE)
 736:Drivers/STM32H7xx_HAL_Driver/Src/stm32h7xx_hal_rcc.c ****         {
 737:Drivers/STM32H7xx_HAL_Driver/Src/stm32h7xx_hal_rcc.c ****           return HAL_TIMEOUT;
 738:Drivers/STM32H7xx_HAL_Driver/Src/stm32h7xx_hal_rcc.c ****         }
 739:Drivers/STM32H7xx_HAL_Driver/Src/stm32h7xx_hal_rcc.c ****       }
 740:Drivers/STM32H7xx_HAL_Driver/Src/stm32h7xx_hal_rcc.c ****     }
 741:Drivers/STM32H7xx_HAL_Driver/Src/stm32h7xx_hal_rcc.c ****   }
 742:Drivers/STM32H7xx_HAL_Driver/Src/stm32h7xx_hal_rcc.c ****   /*-------------------------------- PLL Configuration -----------------------*/
 743:Drivers/STM32H7xx_HAL_Driver/Src/stm32h7xx_hal_rcc.c ****   /* Check the parameters */
 744:Drivers/STM32H7xx_HAL_Driver/Src/stm32h7xx_hal_rcc.c ****   assert_param(IS_RCC_PLL(RCC_OscInitStruct->PLL.PLLState));
 1075              		.loc 1 744 3 is_stmt 1 view .LVU368
 745:Drivers/STM32H7xx_HAL_Driver/Src/stm32h7xx_hal_rcc.c ****   if ((RCC_OscInitStruct->PLL.PLLState) != RCC_PLL_NONE)
 1076              		.loc 1 745 3 view .LVU369
 1077              		.loc 1 745 30 is_stmt 0 view .LVU370
 1078 02f4 636A     		ldr	r3, [r4, #36]
 1079              		.loc 1 745 6 view .LVU371
 1080 02f6 002B     		cmp	r3, #0
 1081 02f8 00F02A81 		beq	.L116
 746:Drivers/STM32H7xx_HAL_Driver/Src/stm32h7xx_hal_rcc.c ****   {
 747:Drivers/STM32H7xx_HAL_Driver/Src/stm32h7xx_hal_rcc.c ****     /* Check if the PLL is used as system clock or not */
 748:Drivers/STM32H7xx_HAL_Driver/Src/stm32h7xx_hal_rcc.c ****     if(__HAL_RCC_GET_SYSCLK_SOURCE() != RCC_CFGR_SWS_PLL1)
 1082              		.loc 1 748 5 is_stmt 1 view .LVU372
 1083              		.loc 1 748 8 is_stmt 0 view .LVU373
 1084 02fc 8D4A     		ldr	r2, .L149
 1085 02fe 1269     		ldr	r2, [r2, #16]
 1086 0300 02F03802 		and	r2, r2, #56
 1087              		.loc 1 748 7 view .LVU374
 1088 0304 182A     		cmp	r2, #24
 1089 0306 00F0EA80 		beq	.L91
 749:Drivers/STM32H7xx_HAL_Driver/Src/stm32h7xx_hal_rcc.c ****     {
 750:Drivers/STM32H7xx_HAL_Driver/Src/stm32h7xx_hal_rcc.c ****       if((RCC_OscInitStruct->PLL.PLLState) == RCC_PLL_ON)
 1090              		.loc 1 750 7 is_stmt 1 view .LVU375
ARM GAS  C:\Users\cinar\AppData\Local\Temp\ccnsnn81.s 			page 35


 1091              		.loc 1 750 9 is_stmt 0 view .LVU376
 1092 030a 022B     		cmp	r3, #2
 1093 030c 75D0     		beq	.L140
 751:Drivers/STM32H7xx_HAL_Driver/Src/stm32h7xx_hal_rcc.c ****       {
 752:Drivers/STM32H7xx_HAL_Driver/Src/stm32h7xx_hal_rcc.c ****         /* Check the parameters */
 753:Drivers/STM32H7xx_HAL_Driver/Src/stm32h7xx_hal_rcc.c ****         assert_param(IS_RCC_PLLSOURCE(RCC_OscInitStruct->PLL.PLLSource));
 754:Drivers/STM32H7xx_HAL_Driver/Src/stm32h7xx_hal_rcc.c ****         assert_param(IS_RCC_PLLRGE_VALUE(RCC_OscInitStruct->PLL.PLLRGE));
 755:Drivers/STM32H7xx_HAL_Driver/Src/stm32h7xx_hal_rcc.c ****         assert_param(IS_RCC_PLLVCO_VALUE(RCC_OscInitStruct->PLL.PLLVCOSEL));
 756:Drivers/STM32H7xx_HAL_Driver/Src/stm32h7xx_hal_rcc.c ****         assert_param(IS_RCC_PLLM_VALUE(RCC_OscInitStruct->PLL.PLLM));
 757:Drivers/STM32H7xx_HAL_Driver/Src/stm32h7xx_hal_rcc.c ****         assert_param(IS_RCC_PLLN_VALUE(RCC_OscInitStruct->PLL.PLLN));
 758:Drivers/STM32H7xx_HAL_Driver/Src/stm32h7xx_hal_rcc.c ****         assert_param(IS_RCC_PLLP_VALUE(RCC_OscInitStruct->PLL.PLLP));
 759:Drivers/STM32H7xx_HAL_Driver/Src/stm32h7xx_hal_rcc.c ****         assert_param(IS_RCC_PLLQ_VALUE(RCC_OscInitStruct->PLL.PLLQ));
 760:Drivers/STM32H7xx_HAL_Driver/Src/stm32h7xx_hal_rcc.c ****         assert_param(IS_RCC_PLLR_VALUE(RCC_OscInitStruct->PLL.PLLR));
 761:Drivers/STM32H7xx_HAL_Driver/Src/stm32h7xx_hal_rcc.c ****         assert_param(IS_RCC_PLLFRACN_VALUE(RCC_OscInitStruct->PLL.PLLFRACN));
 762:Drivers/STM32H7xx_HAL_Driver/Src/stm32h7xx_hal_rcc.c **** 
 763:Drivers/STM32H7xx_HAL_Driver/Src/stm32h7xx_hal_rcc.c ****         /* Disable the main PLL. */
 764:Drivers/STM32H7xx_HAL_Driver/Src/stm32h7xx_hal_rcc.c ****         __HAL_RCC_PLL_DISABLE();
 765:Drivers/STM32H7xx_HAL_Driver/Src/stm32h7xx_hal_rcc.c **** 
 766:Drivers/STM32H7xx_HAL_Driver/Src/stm32h7xx_hal_rcc.c ****         /* Get Start Tick*/
 767:Drivers/STM32H7xx_HAL_Driver/Src/stm32h7xx_hal_rcc.c ****         tickstart = HAL_GetTick();
 768:Drivers/STM32H7xx_HAL_Driver/Src/stm32h7xx_hal_rcc.c **** 
 769:Drivers/STM32H7xx_HAL_Driver/Src/stm32h7xx_hal_rcc.c ****         /* Wait till PLL is disabled */
 770:Drivers/STM32H7xx_HAL_Driver/Src/stm32h7xx_hal_rcc.c ****         while(__HAL_RCC_GET_FLAG(RCC_FLAG_PLLRDY) != 0U)
 771:Drivers/STM32H7xx_HAL_Driver/Src/stm32h7xx_hal_rcc.c ****         {
 772:Drivers/STM32H7xx_HAL_Driver/Src/stm32h7xx_hal_rcc.c ****           if((HAL_GetTick() - tickstart ) > PLL_TIMEOUT_VALUE)
 773:Drivers/STM32H7xx_HAL_Driver/Src/stm32h7xx_hal_rcc.c ****           {
 774:Drivers/STM32H7xx_HAL_Driver/Src/stm32h7xx_hal_rcc.c ****             return HAL_TIMEOUT;
 775:Drivers/STM32H7xx_HAL_Driver/Src/stm32h7xx_hal_rcc.c ****           }
 776:Drivers/STM32H7xx_HAL_Driver/Src/stm32h7xx_hal_rcc.c ****         }
 777:Drivers/STM32H7xx_HAL_Driver/Src/stm32h7xx_hal_rcc.c **** 
 778:Drivers/STM32H7xx_HAL_Driver/Src/stm32h7xx_hal_rcc.c ****         /* Configure the main PLL clock source, multiplication and division factors. */
 779:Drivers/STM32H7xx_HAL_Driver/Src/stm32h7xx_hal_rcc.c ****         __HAL_RCC_PLL_CONFIG(RCC_OscInitStruct->PLL.PLLSource,
 780:Drivers/STM32H7xx_HAL_Driver/Src/stm32h7xx_hal_rcc.c ****                              RCC_OscInitStruct->PLL.PLLM,
 781:Drivers/STM32H7xx_HAL_Driver/Src/stm32h7xx_hal_rcc.c ****                              RCC_OscInitStruct->PLL.PLLN,
 782:Drivers/STM32H7xx_HAL_Driver/Src/stm32h7xx_hal_rcc.c ****                              RCC_OscInitStruct->PLL.PLLP,
 783:Drivers/STM32H7xx_HAL_Driver/Src/stm32h7xx_hal_rcc.c ****                              RCC_OscInitStruct->PLL.PLLQ,
 784:Drivers/STM32H7xx_HAL_Driver/Src/stm32h7xx_hal_rcc.c ****                              RCC_OscInitStruct->PLL.PLLR);
 785:Drivers/STM32H7xx_HAL_Driver/Src/stm32h7xx_hal_rcc.c **** 
 786:Drivers/STM32H7xx_HAL_Driver/Src/stm32h7xx_hal_rcc.c ****          /* Disable PLLFRACN . */
 787:Drivers/STM32H7xx_HAL_Driver/Src/stm32h7xx_hal_rcc.c ****          __HAL_RCC_PLLFRACN_DISABLE();
 788:Drivers/STM32H7xx_HAL_Driver/Src/stm32h7xx_hal_rcc.c **** 
 789:Drivers/STM32H7xx_HAL_Driver/Src/stm32h7xx_hal_rcc.c ****          /* Configure PLL PLL1FRACN */
 790:Drivers/STM32H7xx_HAL_Driver/Src/stm32h7xx_hal_rcc.c ****          __HAL_RCC_PLLFRACN_CONFIG(RCC_OscInitStruct->PLL.PLLFRACN);
 791:Drivers/STM32H7xx_HAL_Driver/Src/stm32h7xx_hal_rcc.c **** 
 792:Drivers/STM32H7xx_HAL_Driver/Src/stm32h7xx_hal_rcc.c ****         /* Select PLL1 input reference frequency range: VCI */
 793:Drivers/STM32H7xx_HAL_Driver/Src/stm32h7xx_hal_rcc.c ****         __HAL_RCC_PLL_VCIRANGE(RCC_OscInitStruct->PLL.PLLRGE) ;
 794:Drivers/STM32H7xx_HAL_Driver/Src/stm32h7xx_hal_rcc.c **** 
 795:Drivers/STM32H7xx_HAL_Driver/Src/stm32h7xx_hal_rcc.c ****         /* Select PLL1 output frequency range : VCO */
 796:Drivers/STM32H7xx_HAL_Driver/Src/stm32h7xx_hal_rcc.c ****         __HAL_RCC_PLL_VCORANGE(RCC_OscInitStruct->PLL.PLLVCOSEL) ;
 797:Drivers/STM32H7xx_HAL_Driver/Src/stm32h7xx_hal_rcc.c **** 
 798:Drivers/STM32H7xx_HAL_Driver/Src/stm32h7xx_hal_rcc.c ****         /* Enable PLL System Clock output. */
 799:Drivers/STM32H7xx_HAL_Driver/Src/stm32h7xx_hal_rcc.c ****          __HAL_RCC_PLLCLKOUT_ENABLE(RCC_PLL1_DIVP);
 800:Drivers/STM32H7xx_HAL_Driver/Src/stm32h7xx_hal_rcc.c **** 
 801:Drivers/STM32H7xx_HAL_Driver/Src/stm32h7xx_hal_rcc.c ****         /* Enable PLL1Q Clock output. */
 802:Drivers/STM32H7xx_HAL_Driver/Src/stm32h7xx_hal_rcc.c ****          __HAL_RCC_PLLCLKOUT_ENABLE(RCC_PLL1_DIVQ);
 803:Drivers/STM32H7xx_HAL_Driver/Src/stm32h7xx_hal_rcc.c **** 
 804:Drivers/STM32H7xx_HAL_Driver/Src/stm32h7xx_hal_rcc.c ****         /* Enable PLL1R  Clock output. */
ARM GAS  C:\Users\cinar\AppData\Local\Temp\ccnsnn81.s 			page 36


 805:Drivers/STM32H7xx_HAL_Driver/Src/stm32h7xx_hal_rcc.c ****          __HAL_RCC_PLLCLKOUT_ENABLE(RCC_PLL1_DIVR);
 806:Drivers/STM32H7xx_HAL_Driver/Src/stm32h7xx_hal_rcc.c **** 
 807:Drivers/STM32H7xx_HAL_Driver/Src/stm32h7xx_hal_rcc.c ****         /* Enable PLL1FRACN . */
 808:Drivers/STM32H7xx_HAL_Driver/Src/stm32h7xx_hal_rcc.c ****          __HAL_RCC_PLLFRACN_ENABLE();
 809:Drivers/STM32H7xx_HAL_Driver/Src/stm32h7xx_hal_rcc.c **** 
 810:Drivers/STM32H7xx_HAL_Driver/Src/stm32h7xx_hal_rcc.c ****         /* Enable the main PLL. */
 811:Drivers/STM32H7xx_HAL_Driver/Src/stm32h7xx_hal_rcc.c ****         __HAL_RCC_PLL_ENABLE();
 812:Drivers/STM32H7xx_HAL_Driver/Src/stm32h7xx_hal_rcc.c **** 
 813:Drivers/STM32H7xx_HAL_Driver/Src/stm32h7xx_hal_rcc.c ****         /* Get Start Tick*/
 814:Drivers/STM32H7xx_HAL_Driver/Src/stm32h7xx_hal_rcc.c ****         tickstart = HAL_GetTick();
 815:Drivers/STM32H7xx_HAL_Driver/Src/stm32h7xx_hal_rcc.c **** 
 816:Drivers/STM32H7xx_HAL_Driver/Src/stm32h7xx_hal_rcc.c ****         /* Wait till PLL is ready */
 817:Drivers/STM32H7xx_HAL_Driver/Src/stm32h7xx_hal_rcc.c ****         while(__HAL_RCC_GET_FLAG(RCC_FLAG_PLLRDY) == 0U)
 818:Drivers/STM32H7xx_HAL_Driver/Src/stm32h7xx_hal_rcc.c ****         {
 819:Drivers/STM32H7xx_HAL_Driver/Src/stm32h7xx_hal_rcc.c ****           if((HAL_GetTick() - tickstart ) > PLL_TIMEOUT_VALUE)
 820:Drivers/STM32H7xx_HAL_Driver/Src/stm32h7xx_hal_rcc.c ****           {
 821:Drivers/STM32H7xx_HAL_Driver/Src/stm32h7xx_hal_rcc.c ****             return HAL_TIMEOUT;
 822:Drivers/STM32H7xx_HAL_Driver/Src/stm32h7xx_hal_rcc.c ****           }
 823:Drivers/STM32H7xx_HAL_Driver/Src/stm32h7xx_hal_rcc.c ****         }
 824:Drivers/STM32H7xx_HAL_Driver/Src/stm32h7xx_hal_rcc.c ****       }
 825:Drivers/STM32H7xx_HAL_Driver/Src/stm32h7xx_hal_rcc.c ****       else
 826:Drivers/STM32H7xx_HAL_Driver/Src/stm32h7xx_hal_rcc.c ****       {
 827:Drivers/STM32H7xx_HAL_Driver/Src/stm32h7xx_hal_rcc.c ****         /* Disable the main PLL. */
 828:Drivers/STM32H7xx_HAL_Driver/Src/stm32h7xx_hal_rcc.c ****         __HAL_RCC_PLL_DISABLE();
 1094              		.loc 1 828 9 is_stmt 1 view .LVU377
 1095 030e 894A     		ldr	r2, .L149
 1096 0310 1368     		ldr	r3, [r2]
 1097 0312 23F08073 		bic	r3, r3, #16777216
 1098 0316 1360     		str	r3, [r2]
 829:Drivers/STM32H7xx_HAL_Driver/Src/stm32h7xx_hal_rcc.c **** 
 830:Drivers/STM32H7xx_HAL_Driver/Src/stm32h7xx_hal_rcc.c ****         /* Get Start Tick*/
 831:Drivers/STM32H7xx_HAL_Driver/Src/stm32h7xx_hal_rcc.c ****         tickstart = HAL_GetTick();
 1099              		.loc 1 831 9 view .LVU378
 1100              		.loc 1 831 21 is_stmt 0 view .LVU379
 1101 0318 FFF7FEFF 		bl	HAL_GetTick
 1102              	.LVL91:
 1103 031c 0446     		mov	r4, r0
 1104              	.LVL92:
 832:Drivers/STM32H7xx_HAL_Driver/Src/stm32h7xx_hal_rcc.c **** 
 833:Drivers/STM32H7xx_HAL_Driver/Src/stm32h7xx_hal_rcc.c ****         /* Wait till PLL is disabled */
 834:Drivers/STM32H7xx_HAL_Driver/Src/stm32h7xx_hal_rcc.c ****         while(__HAL_RCC_GET_FLAG(RCC_FLAG_PLLRDY) != 0U)
 1105              		.loc 1 834 9 is_stmt 1 view .LVU380
 1106              	.L97:
 1107              		.loc 1 834 14 view .LVU381
 1108              		.loc 1 834 15 is_stmt 0 view .LVU382
 1109 031e 854B     		ldr	r3, .L149
 1110 0320 1B68     		ldr	r3, [r3]
 1111              		.loc 1 834 14 view .LVU383
 1112 0322 13F0007F 		tst	r3, #33554432
 1113 0326 00F0D880 		beq	.L141
 835:Drivers/STM32H7xx_HAL_Driver/Src/stm32h7xx_hal_rcc.c ****         {
 836:Drivers/STM32H7xx_HAL_Driver/Src/stm32h7xx_hal_rcc.c ****           if((HAL_GetTick() - tickstart ) > PLL_TIMEOUT_VALUE)
 1114              		.loc 1 836 11 is_stmt 1 view .LVU384
 1115              		.loc 1 836 15 is_stmt 0 view .LVU385
 1116 032a FFF7FEFF 		bl	HAL_GetTick
 1117              	.LVL93:
 1118              		.loc 1 836 29 view .LVU386
ARM GAS  C:\Users\cinar\AppData\Local\Temp\ccnsnn81.s 			page 37


 1119 032e 001B     		subs	r0, r0, r4
 1120              		.loc 1 836 13 view .LVU387
 1121 0330 0228     		cmp	r0, #2
 1122 0332 F4D9     		bls	.L97
 837:Drivers/STM32H7xx_HAL_Driver/Src/stm32h7xx_hal_rcc.c ****           {
 838:Drivers/STM32H7xx_HAL_Driver/Src/stm32h7xx_hal_rcc.c ****             return HAL_TIMEOUT;
 1123              		.loc 1 838 20 view .LVU388
 1124 0334 0320     		movs	r0, #3
 1125 0336 0CE1     		b	.L36
 1126              	.LVL94:
 1127              	.L139:
 694:Drivers/STM32H7xx_HAL_Driver/Src/stm32h7xx_hal_rcc.c **** 
 1128              		.loc 1 694 5 is_stmt 1 view .LVU389
 697:Drivers/STM32H7xx_HAL_Driver/Src/stm32h7xx_hal_rcc.c **** 
 1129              		.loc 1 697 5 view .LVU390
 697:Drivers/STM32H7xx_HAL_Driver/Src/stm32h7xx_hal_rcc.c **** 
 1130              		.loc 1 697 14 is_stmt 0 view .LVU391
 1131 0338 7F4A     		ldr	r2, .L149+4
 1132 033a 1368     		ldr	r3, [r2]
 1133 033c 43F48073 		orr	r3, r3, #256
 1134 0340 1360     		str	r3, [r2]
 700:Drivers/STM32H7xx_HAL_Driver/Src/stm32h7xx_hal_rcc.c **** 
 1135              		.loc 1 700 5 is_stmt 1 view .LVU392
 700:Drivers/STM32H7xx_HAL_Driver/Src/stm32h7xx_hal_rcc.c **** 
 1136              		.loc 1 700 17 is_stmt 0 view .LVU393
 1137 0342 FFF7FEFF 		bl	HAL_GetTick
 1138              	.LVL95:
 1139 0346 0546     		mov	r5, r0
 1140              	.LVL96:
 702:Drivers/STM32H7xx_HAL_Driver/Src/stm32h7xx_hal_rcc.c ****     {
 1141              		.loc 1 702 5 is_stmt 1 view .LVU394
 1142              	.L80:
 702:Drivers/STM32H7xx_HAL_Driver/Src/stm32h7xx_hal_rcc.c ****     {
 1143              		.loc 1 702 10 view .LVU395
 702:Drivers/STM32H7xx_HAL_Driver/Src/stm32h7xx_hal_rcc.c ****     {
 1144              		.loc 1 702 15 is_stmt 0 view .LVU396
 1145 0348 7B4B     		ldr	r3, .L149+4
 1146 034a 1B68     		ldr	r3, [r3]
 702:Drivers/STM32H7xx_HAL_Driver/Src/stm32h7xx_hal_rcc.c ****     {
 1147              		.loc 1 702 10 view .LVU397
 1148 034c 13F4807F 		tst	r3, #256
 1149 0350 06D1     		bne	.L142
 704:Drivers/STM32H7xx_HAL_Driver/Src/stm32h7xx_hal_rcc.c ****       {
 1150              		.loc 1 704 7 is_stmt 1 view .LVU398
 704:Drivers/STM32H7xx_HAL_Driver/Src/stm32h7xx_hal_rcc.c ****       {
 1151              		.loc 1 704 11 is_stmt 0 view .LVU399
 1152 0352 FFF7FEFF 		bl	HAL_GetTick
 1153              	.LVL97:
 704:Drivers/STM32H7xx_HAL_Driver/Src/stm32h7xx_hal_rcc.c ****       {
 1154              		.loc 1 704 25 view .LVU400
 1155 0356 401B     		subs	r0, r0, r5
 704:Drivers/STM32H7xx_HAL_Driver/Src/stm32h7xx_hal_rcc.c ****       {
 1156              		.loc 1 704 9 view .LVU401
 1157 0358 6428     		cmp	r0, #100
 1158 035a F5D9     		bls	.L80
 706:Drivers/STM32H7xx_HAL_Driver/Src/stm32h7xx_hal_rcc.c ****       }
 1159              		.loc 1 706 16 view .LVU402
ARM GAS  C:\Users\cinar\AppData\Local\Temp\ccnsnn81.s 			page 38


 1160 035c 0320     		movs	r0, #3
 1161 035e F8E0     		b	.L36
 1162              	.L142:
 711:Drivers/STM32H7xx_HAL_Driver/Src/stm32h7xx_hal_rcc.c ****     /* Check the LSE State */
 1163              		.loc 1 711 5 is_stmt 1 view .LVU403
 711:Drivers/STM32H7xx_HAL_Driver/Src/stm32h7xx_hal_rcc.c ****     /* Check the LSE State */
 1164              		.loc 1 711 5 view .LVU404
 1165 0360 A368     		ldr	r3, [r4, #8]
 1166 0362 012B     		cmp	r3, #1
 1167 0364 0AD0     		beq	.L143
 711:Drivers/STM32H7xx_HAL_Driver/Src/stm32h7xx_hal_rcc.c ****     /* Check the LSE State */
 1168              		.loc 1 711 5 discriminator 2 view .LVU405
 1169 0366 0BBB     		cbnz	r3, .L84
 711:Drivers/STM32H7xx_HAL_Driver/Src/stm32h7xx_hal_rcc.c ****     /* Check the LSE State */
 1170              		.loc 1 711 5 discriminator 4 view .LVU406
 1171 0368 724B     		ldr	r3, .L149
 1172 036a 1A6F     		ldr	r2, [r3, #112]
 1173 036c 22F00102 		bic	r2, r2, #1
 1174 0370 1A67     		str	r2, [r3, #112]
 711:Drivers/STM32H7xx_HAL_Driver/Src/stm32h7xx_hal_rcc.c ****     /* Check the LSE State */
 1175              		.loc 1 711 5 discriminator 4 view .LVU407
 1176 0372 1A6F     		ldr	r2, [r3, #112]
 1177 0374 22F00402 		bic	r2, r2, #4
 1178 0378 1A67     		str	r2, [r3, #112]
 1179 037a 04E0     		b	.L83
 1180              	.L143:
 711:Drivers/STM32H7xx_HAL_Driver/Src/stm32h7xx_hal_rcc.c ****     /* Check the LSE State */
 1181              		.loc 1 711 5 discriminator 1 view .LVU408
 1182 037c 6D4A     		ldr	r2, .L149
 1183 037e 136F     		ldr	r3, [r2, #112]
 1184 0380 43F00103 		orr	r3, r3, #1
 1185 0384 1367     		str	r3, [r2, #112]
 1186              	.L83:
 711:Drivers/STM32H7xx_HAL_Driver/Src/stm32h7xx_hal_rcc.c ****     /* Check the LSE State */
 1187              		.loc 1 711 5 discriminator 10 view .LVU409
 713:Drivers/STM32H7xx_HAL_Driver/Src/stm32h7xx_hal_rcc.c ****     {
 1188              		.loc 1 713 5 discriminator 10 view .LVU410
 713:Drivers/STM32H7xx_HAL_Driver/Src/stm32h7xx_hal_rcc.c ****     {
 1189              		.loc 1 713 26 is_stmt 0 discriminator 10 view .LVU411
 1190 0386 A368     		ldr	r3, [r4, #8]
 713:Drivers/STM32H7xx_HAL_Driver/Src/stm32h7xx_hal_rcc.c ****     {
 1191              		.loc 1 713 7 discriminator 10 view .LVU412
 1192 0388 33B3     		cbz	r3, .L86
 716:Drivers/STM32H7xx_HAL_Driver/Src/stm32h7xx_hal_rcc.c **** 
 1193              		.loc 1 716 7 is_stmt 1 view .LVU413
 716:Drivers/STM32H7xx_HAL_Driver/Src/stm32h7xx_hal_rcc.c **** 
 1194              		.loc 1 716 19 is_stmt 0 view .LVU414
 1195 038a FFF7FEFF 		bl	HAL_GetTick
 1196              	.LVL98:
 1197 038e 0546     		mov	r5, r0
 1198              	.LVL99:
 719:Drivers/STM32H7xx_HAL_Driver/Src/stm32h7xx_hal_rcc.c ****       {
 1199              		.loc 1 719 7 is_stmt 1 view .LVU415
 1200              	.L87:
 719:Drivers/STM32H7xx_HAL_Driver/Src/stm32h7xx_hal_rcc.c ****       {
 1201              		.loc 1 719 12 view .LVU416
 719:Drivers/STM32H7xx_HAL_Driver/Src/stm32h7xx_hal_rcc.c ****       {
ARM GAS  C:\Users\cinar\AppData\Local\Temp\ccnsnn81.s 			page 39


 1202              		.loc 1 719 13 is_stmt 0 view .LVU417
 1203 0390 684B     		ldr	r3, .L149
 1204 0392 1B6F     		ldr	r3, [r3, #112]
 719:Drivers/STM32H7xx_HAL_Driver/Src/stm32h7xx_hal_rcc.c ****       {
 1205              		.loc 1 719 12 view .LVU418
 1206 0394 13F0020F 		tst	r3, #2
 1207 0398 ACD1     		bne	.L79
 721:Drivers/STM32H7xx_HAL_Driver/Src/stm32h7xx_hal_rcc.c ****         {
 1208              		.loc 1 721 9 is_stmt 1 view .LVU419
 721:Drivers/STM32H7xx_HAL_Driver/Src/stm32h7xx_hal_rcc.c ****         {
 1209              		.loc 1 721 13 is_stmt 0 view .LVU420
 1210 039a FFF7FEFF 		bl	HAL_GetTick
 1211              	.LVL100:
 721:Drivers/STM32H7xx_HAL_Driver/Src/stm32h7xx_hal_rcc.c ****         {
 1212              		.loc 1 721 27 view .LVU421
 1213 039e 401B     		subs	r0, r0, r5
 721:Drivers/STM32H7xx_HAL_Driver/Src/stm32h7xx_hal_rcc.c ****         {
 1214              		.loc 1 721 11 view .LVU422
 1215 03a0 41F28833 		movw	r3, #5000
 1216 03a4 9842     		cmp	r0, r3
 1217 03a6 F3D9     		bls	.L87
 723:Drivers/STM32H7xx_HAL_Driver/Src/stm32h7xx_hal_rcc.c ****         }
 1218              		.loc 1 723 18 view .LVU423
 1219 03a8 0320     		movs	r0, #3
 1220 03aa D2E0     		b	.L36
 1221              	.L84:
 711:Drivers/STM32H7xx_HAL_Driver/Src/stm32h7xx_hal_rcc.c ****     /* Check the LSE State */
 1222              		.loc 1 711 5 is_stmt 1 discriminator 5 view .LVU424
 1223 03ac 052B     		cmp	r3, #5
 1224 03ae 09D0     		beq	.L144
 711:Drivers/STM32H7xx_HAL_Driver/Src/stm32h7xx_hal_rcc.c ****     /* Check the LSE State */
 1225              		.loc 1 711 5 discriminator 8 view .LVU425
 1226 03b0 604B     		ldr	r3, .L149
 1227 03b2 1A6F     		ldr	r2, [r3, #112]
 1228 03b4 22F00102 		bic	r2, r2, #1
 1229 03b8 1A67     		str	r2, [r3, #112]
 711:Drivers/STM32H7xx_HAL_Driver/Src/stm32h7xx_hal_rcc.c ****     /* Check the LSE State */
 1230              		.loc 1 711 5 discriminator 8 view .LVU426
 1231 03ba 1A6F     		ldr	r2, [r3, #112]
 1232 03bc 22F00402 		bic	r2, r2, #4
 1233 03c0 1A67     		str	r2, [r3, #112]
 1234 03c2 E0E7     		b	.L83
 1235              	.L144:
 711:Drivers/STM32H7xx_HAL_Driver/Src/stm32h7xx_hal_rcc.c ****     /* Check the LSE State */
 1236              		.loc 1 711 5 discriminator 7 view .LVU427
 1237 03c4 5B4B     		ldr	r3, .L149
 1238 03c6 1A6F     		ldr	r2, [r3, #112]
 1239 03c8 42F00402 		orr	r2, r2, #4
 1240 03cc 1A67     		str	r2, [r3, #112]
 711:Drivers/STM32H7xx_HAL_Driver/Src/stm32h7xx_hal_rcc.c ****     /* Check the LSE State */
 1241              		.loc 1 711 5 discriminator 7 view .LVU428
 1242 03ce 1A6F     		ldr	r2, [r3, #112]
 1243 03d0 42F00102 		orr	r2, r2, #1
 1244 03d4 1A67     		str	r2, [r3, #112]
 1245 03d6 D6E7     		b	.L83
 1246              	.L86:
 730:Drivers/STM32H7xx_HAL_Driver/Src/stm32h7xx_hal_rcc.c **** 
ARM GAS  C:\Users\cinar\AppData\Local\Temp\ccnsnn81.s 			page 40


 1247              		.loc 1 730 7 view .LVU429
 730:Drivers/STM32H7xx_HAL_Driver/Src/stm32h7xx_hal_rcc.c **** 
 1248              		.loc 1 730 19 is_stmt 0 view .LVU430
 1249 03d8 FFF7FEFF 		bl	HAL_GetTick
 1250              	.LVL101:
 1251 03dc 0546     		mov	r5, r0
 1252              	.LVL102:
 733:Drivers/STM32H7xx_HAL_Driver/Src/stm32h7xx_hal_rcc.c ****       {
 1253              		.loc 1 733 7 is_stmt 1 view .LVU431
 1254              	.L89:
 733:Drivers/STM32H7xx_HAL_Driver/Src/stm32h7xx_hal_rcc.c ****       {
 1255              		.loc 1 733 12 view .LVU432
 733:Drivers/STM32H7xx_HAL_Driver/Src/stm32h7xx_hal_rcc.c ****       {
 1256              		.loc 1 733 13 is_stmt 0 view .LVU433
 1257 03de 554B     		ldr	r3, .L149
 1258 03e0 1B6F     		ldr	r3, [r3, #112]
 733:Drivers/STM32H7xx_HAL_Driver/Src/stm32h7xx_hal_rcc.c ****       {
 1259              		.loc 1 733 12 view .LVU434
 1260 03e2 13F0020F 		tst	r3, #2
 1261 03e6 85D0     		beq	.L79
 735:Drivers/STM32H7xx_HAL_Driver/Src/stm32h7xx_hal_rcc.c ****         {
 1262              		.loc 1 735 9 is_stmt 1 view .LVU435
 735:Drivers/STM32H7xx_HAL_Driver/Src/stm32h7xx_hal_rcc.c ****         {
 1263              		.loc 1 735 13 is_stmt 0 view .LVU436
 1264 03e8 FFF7FEFF 		bl	HAL_GetTick
 1265              	.LVL103:
 735:Drivers/STM32H7xx_HAL_Driver/Src/stm32h7xx_hal_rcc.c ****         {
 1266              		.loc 1 735 27 view .LVU437
 1267 03ec 401B     		subs	r0, r0, r5
 735:Drivers/STM32H7xx_HAL_Driver/Src/stm32h7xx_hal_rcc.c ****         {
 1268              		.loc 1 735 11 view .LVU438
 1269 03ee 41F28833 		movw	r3, #5000
 1270 03f2 9842     		cmp	r0, r3
 1271 03f4 F3D9     		bls	.L89
 737:Drivers/STM32H7xx_HAL_Driver/Src/stm32h7xx_hal_rcc.c ****         }
 1272              		.loc 1 737 18 view .LVU439
 1273 03f6 0320     		movs	r0, #3
 1274 03f8 ABE0     		b	.L36
 1275              	.LVL104:
 1276              	.L140:
 753:Drivers/STM32H7xx_HAL_Driver/Src/stm32h7xx_hal_rcc.c ****         assert_param(IS_RCC_PLLRGE_VALUE(RCC_OscInitStruct->PLL.PLLRGE));
 1277              		.loc 1 753 9 is_stmt 1 view .LVU440
 754:Drivers/STM32H7xx_HAL_Driver/Src/stm32h7xx_hal_rcc.c ****         assert_param(IS_RCC_PLLVCO_VALUE(RCC_OscInitStruct->PLL.PLLVCOSEL));
 1278              		.loc 1 754 9 view .LVU441
 755:Drivers/STM32H7xx_HAL_Driver/Src/stm32h7xx_hal_rcc.c ****         assert_param(IS_RCC_PLLM_VALUE(RCC_OscInitStruct->PLL.PLLM));
 1279              		.loc 1 755 9 view .LVU442
 756:Drivers/STM32H7xx_HAL_Driver/Src/stm32h7xx_hal_rcc.c ****         assert_param(IS_RCC_PLLN_VALUE(RCC_OscInitStruct->PLL.PLLN));
 1280              		.loc 1 756 9 view .LVU443
 757:Drivers/STM32H7xx_HAL_Driver/Src/stm32h7xx_hal_rcc.c ****         assert_param(IS_RCC_PLLP_VALUE(RCC_OscInitStruct->PLL.PLLP));
 1281              		.loc 1 757 9 view .LVU444
 758:Drivers/STM32H7xx_HAL_Driver/Src/stm32h7xx_hal_rcc.c ****         assert_param(IS_RCC_PLLQ_VALUE(RCC_OscInitStruct->PLL.PLLQ));
 1282              		.loc 1 758 9 view .LVU445
 759:Drivers/STM32H7xx_HAL_Driver/Src/stm32h7xx_hal_rcc.c ****         assert_param(IS_RCC_PLLR_VALUE(RCC_OscInitStruct->PLL.PLLR));
 1283              		.loc 1 759 9 view .LVU446
 760:Drivers/STM32H7xx_HAL_Driver/Src/stm32h7xx_hal_rcc.c ****         assert_param(IS_RCC_PLLFRACN_VALUE(RCC_OscInitStruct->PLL.PLLFRACN));
 1284              		.loc 1 760 9 view .LVU447
 761:Drivers/STM32H7xx_HAL_Driver/Src/stm32h7xx_hal_rcc.c **** 
ARM GAS  C:\Users\cinar\AppData\Local\Temp\ccnsnn81.s 			page 41


 1285              		.loc 1 761 9 view .LVU448
 764:Drivers/STM32H7xx_HAL_Driver/Src/stm32h7xx_hal_rcc.c **** 
 1286              		.loc 1 764 9 view .LVU449
 1287 03fa 4E4A     		ldr	r2, .L149
 1288 03fc 1368     		ldr	r3, [r2]
 1289 03fe 23F08073 		bic	r3, r3, #16777216
 1290 0402 1360     		str	r3, [r2]
 767:Drivers/STM32H7xx_HAL_Driver/Src/stm32h7xx_hal_rcc.c **** 
 1291              		.loc 1 767 9 view .LVU450
 767:Drivers/STM32H7xx_HAL_Driver/Src/stm32h7xx_hal_rcc.c **** 
 1292              		.loc 1 767 21 is_stmt 0 view .LVU451
 1293 0404 FFF7FEFF 		bl	HAL_GetTick
 1294              	.LVL105:
 1295 0408 0546     		mov	r5, r0
 1296              	.LVL106:
 770:Drivers/STM32H7xx_HAL_Driver/Src/stm32h7xx_hal_rcc.c ****         {
 1297              		.loc 1 770 9 is_stmt 1 view .LVU452
 1298              	.L93:
 770:Drivers/STM32H7xx_HAL_Driver/Src/stm32h7xx_hal_rcc.c ****         {
 1299              		.loc 1 770 14 view .LVU453
 770:Drivers/STM32H7xx_HAL_Driver/Src/stm32h7xx_hal_rcc.c ****         {
 1300              		.loc 1 770 15 is_stmt 0 view .LVU454
 1301 040a 4A4B     		ldr	r3, .L149
 1302 040c 1B68     		ldr	r3, [r3]
 770:Drivers/STM32H7xx_HAL_Driver/Src/stm32h7xx_hal_rcc.c ****         {
 1303              		.loc 1 770 14 view .LVU455
 1304 040e 13F0007F 		tst	r3, #33554432
 1305 0412 06D0     		beq	.L145
 772:Drivers/STM32H7xx_HAL_Driver/Src/stm32h7xx_hal_rcc.c ****           {
 1306              		.loc 1 772 11 is_stmt 1 view .LVU456
 772:Drivers/STM32H7xx_HAL_Driver/Src/stm32h7xx_hal_rcc.c ****           {
 1307              		.loc 1 772 15 is_stmt 0 view .LVU457
 1308 0414 FFF7FEFF 		bl	HAL_GetTick
 1309              	.LVL107:
 772:Drivers/STM32H7xx_HAL_Driver/Src/stm32h7xx_hal_rcc.c ****           {
 1310              		.loc 1 772 29 view .LVU458
 1311 0418 401B     		subs	r0, r0, r5
 772:Drivers/STM32H7xx_HAL_Driver/Src/stm32h7xx_hal_rcc.c ****           {
 1312              		.loc 1 772 13 view .LVU459
 1313 041a 0228     		cmp	r0, #2
 1314 041c F5D9     		bls	.L93
 774:Drivers/STM32H7xx_HAL_Driver/Src/stm32h7xx_hal_rcc.c ****           }
 1315              		.loc 1 774 20 view .LVU460
 1316 041e 0320     		movs	r0, #3
 1317 0420 97E0     		b	.L36
 1318              	.L145:
 779:Drivers/STM32H7xx_HAL_Driver/Src/stm32h7xx_hal_rcc.c ****                              RCC_OscInitStruct->PLL.PLLM,
 1319              		.loc 1 779 9 is_stmt 1 view .LVU461
 779:Drivers/STM32H7xx_HAL_Driver/Src/stm32h7xx_hal_rcc.c ****                              RCC_OscInitStruct->PLL.PLLM,
 1320              		.loc 1 779 9 view .LVU462
 1321 0422 444B     		ldr	r3, .L149
 1322 0424 996A     		ldr	r1, [r3, #40]
 1323 0426 454A     		ldr	r2, .L149+8
 1324 0428 0A40     		ands	r2, r2, r1
 1325 042a A16A     		ldr	r1, [r4, #40]
 1326 042c E06A     		ldr	r0, [r4, #44]
 1327 042e 41EA0011 		orr	r1, r1, r0, lsl #4
ARM GAS  C:\Users\cinar\AppData\Local\Temp\ccnsnn81.s 			page 42


 1328 0432 0A43     		orrs	r2, r2, r1
 1329 0434 9A62     		str	r2, [r3, #40]
 779:Drivers/STM32H7xx_HAL_Driver/Src/stm32h7xx_hal_rcc.c ****                              RCC_OscInitStruct->PLL.PLLM,
 1330              		.loc 1 779 9 view .LVU463
 1331 0436 226B     		ldr	r2, [r4, #48]
 1332 0438 013A     		subs	r2, r2, #1
 1333 043a C2F30802 		ubfx	r2, r2, #0, #9
 1334 043e 616B     		ldr	r1, [r4, #52]
 1335 0440 0139     		subs	r1, r1, #1
 1336 0442 4902     		lsls	r1, r1, #9
 1337 0444 89B2     		uxth	r1, r1
 1338 0446 0A43     		orrs	r2, r2, r1
 1339 0448 A16B     		ldr	r1, [r4, #56]
 1340 044a 0139     		subs	r1, r1, #1
 1341 044c 0904     		lsls	r1, r1, #16
 1342 044e 01F4FE01 		and	r1, r1, #8323072
 1343 0452 0A43     		orrs	r2, r2, r1
 1344 0454 E16B     		ldr	r1, [r4, #60]
 1345 0456 0139     		subs	r1, r1, #1
 1346 0458 0906     		lsls	r1, r1, #24
 1347 045a 01F0FE41 		and	r1, r1, #2130706432
 1348 045e 0A43     		orrs	r2, r2, r1
 1349 0460 1A63     		str	r2, [r3, #48]
 779:Drivers/STM32H7xx_HAL_Driver/Src/stm32h7xx_hal_rcc.c ****                              RCC_OscInitStruct->PLL.PLLM,
 1350              		.loc 1 779 9 view .LVU464
 787:Drivers/STM32H7xx_HAL_Driver/Src/stm32h7xx_hal_rcc.c **** 
 1351              		.loc 1 787 10 view .LVU465
 1352 0462 DA6A     		ldr	r2, [r3, #44]
 1353 0464 22F00102 		bic	r2, r2, #1
 1354 0468 DA62     		str	r2, [r3, #44]
 790:Drivers/STM32H7xx_HAL_Driver/Src/stm32h7xx_hal_rcc.c **** 
 1355              		.loc 1 790 10 view .LVU466
 1356 046a 596B     		ldr	r1, [r3, #52]
 1357 046c 344A     		ldr	r2, .L149+12
 1358 046e 0A40     		ands	r2, r2, r1
 1359 0470 A16C     		ldr	r1, [r4, #72]
 1360 0472 42EAC102 		orr	r2, r2, r1, lsl #3
 1361 0476 5A63     		str	r2, [r3, #52]
 793:Drivers/STM32H7xx_HAL_Driver/Src/stm32h7xx_hal_rcc.c **** 
 1362              		.loc 1 793 9 view .LVU467
 1363 0478 DA6A     		ldr	r2, [r3, #44]
 1364 047a 22F00C02 		bic	r2, r2, #12
 1365 047e 216C     		ldr	r1, [r4, #64]
 1366 0480 0A43     		orrs	r2, r2, r1
 1367 0482 DA62     		str	r2, [r3, #44]
 796:Drivers/STM32H7xx_HAL_Driver/Src/stm32h7xx_hal_rcc.c **** 
 1368              		.loc 1 796 9 view .LVU468
 1369 0484 DA6A     		ldr	r2, [r3, #44]
 1370 0486 22F00202 		bic	r2, r2, #2
 1371 048a 616C     		ldr	r1, [r4, #68]
 1372 048c 0A43     		orrs	r2, r2, r1
 1373 048e DA62     		str	r2, [r3, #44]
 799:Drivers/STM32H7xx_HAL_Driver/Src/stm32h7xx_hal_rcc.c **** 
 1374              		.loc 1 799 10 view .LVU469
 1375 0490 DA6A     		ldr	r2, [r3, #44]
 1376 0492 42F48032 		orr	r2, r2, #65536
 1377 0496 DA62     		str	r2, [r3, #44]
ARM GAS  C:\Users\cinar\AppData\Local\Temp\ccnsnn81.s 			page 43


 802:Drivers/STM32H7xx_HAL_Driver/Src/stm32h7xx_hal_rcc.c **** 
 1378              		.loc 1 802 10 view .LVU470
 1379 0498 DA6A     		ldr	r2, [r3, #44]
 1380 049a 42F40032 		orr	r2, r2, #131072
 1381 049e DA62     		str	r2, [r3, #44]
 805:Drivers/STM32H7xx_HAL_Driver/Src/stm32h7xx_hal_rcc.c **** 
 1382              		.loc 1 805 10 view .LVU471
 1383 04a0 DA6A     		ldr	r2, [r3, #44]
 1384 04a2 42F48022 		orr	r2, r2, #262144
 1385 04a6 DA62     		str	r2, [r3, #44]
 808:Drivers/STM32H7xx_HAL_Driver/Src/stm32h7xx_hal_rcc.c **** 
 1386              		.loc 1 808 10 view .LVU472
 1387 04a8 DA6A     		ldr	r2, [r3, #44]
 1388 04aa 42F00102 		orr	r2, r2, #1
 1389 04ae DA62     		str	r2, [r3, #44]
 811:Drivers/STM32H7xx_HAL_Driver/Src/stm32h7xx_hal_rcc.c **** 
 1390              		.loc 1 811 9 view .LVU473
 1391 04b0 1A68     		ldr	r2, [r3]
 1392 04b2 42F08072 		orr	r2, r2, #16777216
 1393 04b6 1A60     		str	r2, [r3]
 814:Drivers/STM32H7xx_HAL_Driver/Src/stm32h7xx_hal_rcc.c **** 
 1394              		.loc 1 814 9 view .LVU474
 814:Drivers/STM32H7xx_HAL_Driver/Src/stm32h7xx_hal_rcc.c **** 
 1395              		.loc 1 814 21 is_stmt 0 view .LVU475
 1396 04b8 FFF7FEFF 		bl	HAL_GetTick
 1397              	.LVL108:
 1398 04bc 0446     		mov	r4, r0
 1399              	.LVL109:
 817:Drivers/STM32H7xx_HAL_Driver/Src/stm32h7xx_hal_rcc.c ****         {
 1400              		.loc 1 817 9 is_stmt 1 view .LVU476
 1401              	.L95:
 817:Drivers/STM32H7xx_HAL_Driver/Src/stm32h7xx_hal_rcc.c ****         {
 1402              		.loc 1 817 14 view .LVU477
 817:Drivers/STM32H7xx_HAL_Driver/Src/stm32h7xx_hal_rcc.c ****         {
 1403              		.loc 1 817 15 is_stmt 0 view .LVU478
 1404 04be 1D4B     		ldr	r3, .L149
 1405 04c0 1B68     		ldr	r3, [r3]
 817:Drivers/STM32H7xx_HAL_Driver/Src/stm32h7xx_hal_rcc.c ****         {
 1406              		.loc 1 817 14 view .LVU479
 1407 04c2 13F0007F 		tst	r3, #33554432
 1408 04c6 06D1     		bne	.L146
 819:Drivers/STM32H7xx_HAL_Driver/Src/stm32h7xx_hal_rcc.c ****           {
 1409              		.loc 1 819 11 is_stmt 1 view .LVU480
 819:Drivers/STM32H7xx_HAL_Driver/Src/stm32h7xx_hal_rcc.c ****           {
 1410              		.loc 1 819 15 is_stmt 0 view .LVU481
 1411 04c8 FFF7FEFF 		bl	HAL_GetTick
 1412              	.LVL110:
 819:Drivers/STM32H7xx_HAL_Driver/Src/stm32h7xx_hal_rcc.c ****           {
 1413              		.loc 1 819 29 view .LVU482
 1414 04cc 001B     		subs	r0, r0, r4
 819:Drivers/STM32H7xx_HAL_Driver/Src/stm32h7xx_hal_rcc.c ****           {
 1415              		.loc 1 819 13 view .LVU483
 1416 04ce 0228     		cmp	r0, #2
 1417 04d0 F5D9     		bls	.L95
 821:Drivers/STM32H7xx_HAL_Driver/Src/stm32h7xx_hal_rcc.c ****           }
 1418              		.loc 1 821 20 view .LVU484
 1419 04d2 0320     		movs	r0, #3
ARM GAS  C:\Users\cinar\AppData\Local\Temp\ccnsnn81.s 			page 44


 1420 04d4 3DE0     		b	.L36
 1421              	.L146:
 839:Drivers/STM32H7xx_HAL_Driver/Src/stm32h7xx_hal_rcc.c ****           }
 840:Drivers/STM32H7xx_HAL_Driver/Src/stm32h7xx_hal_rcc.c ****         }
 841:Drivers/STM32H7xx_HAL_Driver/Src/stm32h7xx_hal_rcc.c ****       }
 842:Drivers/STM32H7xx_HAL_Driver/Src/stm32h7xx_hal_rcc.c ****     }
 843:Drivers/STM32H7xx_HAL_Driver/Src/stm32h7xx_hal_rcc.c ****     else
 844:Drivers/STM32H7xx_HAL_Driver/Src/stm32h7xx_hal_rcc.c ****     {
 845:Drivers/STM32H7xx_HAL_Driver/Src/stm32h7xx_hal_rcc.c ****       /* Do not return HAL_ERROR if request repeats the current configuration */
 846:Drivers/STM32H7xx_HAL_Driver/Src/stm32h7xx_hal_rcc.c ****       temp1_pllckcfg = RCC->PLLCKSELR;
 847:Drivers/STM32H7xx_HAL_Driver/Src/stm32h7xx_hal_rcc.c ****       temp2_pllckcfg = RCC->PLL1DIVR;
 848:Drivers/STM32H7xx_HAL_Driver/Src/stm32h7xx_hal_rcc.c ****       if(((RCC_OscInitStruct->PLL.PLLState) == RCC_PLL_OFF) ||
 849:Drivers/STM32H7xx_HAL_Driver/Src/stm32h7xx_hal_rcc.c **** 	 (READ_BIT(temp1_pllckcfg, RCC_PLLCKSELR_PLLSRC) != RCC_OscInitStruct->PLL.PLLSource) ||
 850:Drivers/STM32H7xx_HAL_Driver/Src/stm32h7xx_hal_rcc.c ****          ((READ_BIT(temp1_pllckcfg, RCC_PLLCKSELR_DIVM1) >> RCC_PLLCKSELR_DIVM1_Pos) != RCC_OscInit
 851:Drivers/STM32H7xx_HAL_Driver/Src/stm32h7xx_hal_rcc.c ****          (READ_BIT(temp2_pllckcfg, RCC_PLL1DIVR_N1) != (RCC_OscInitStruct->PLL.PLLN - 1U)) ||
 852:Drivers/STM32H7xx_HAL_Driver/Src/stm32h7xx_hal_rcc.c ****          ((READ_BIT(temp2_pllckcfg, RCC_PLL1DIVR_P1) >> RCC_PLL1DIVR_P1_Pos) != (RCC_OscInitStruct-
 853:Drivers/STM32H7xx_HAL_Driver/Src/stm32h7xx_hal_rcc.c ****          ((READ_BIT(temp2_pllckcfg, RCC_PLL1DIVR_Q1) >> RCC_PLL1DIVR_Q1_Pos) != (RCC_OscInitStruct-
 854:Drivers/STM32H7xx_HAL_Driver/Src/stm32h7xx_hal_rcc.c ****          ((READ_BIT(temp2_pllckcfg, RCC_PLL1DIVR_R1) >> RCC_PLL1DIVR_R1_Pos) != (RCC_OscInitStruct-
 855:Drivers/STM32H7xx_HAL_Driver/Src/stm32h7xx_hal_rcc.c ****       {
 856:Drivers/STM32H7xx_HAL_Driver/Src/stm32h7xx_hal_rcc.c ****         return HAL_ERROR;
 857:Drivers/STM32H7xx_HAL_Driver/Src/stm32h7xx_hal_rcc.c ****       }
 858:Drivers/STM32H7xx_HAL_Driver/Src/stm32h7xx_hal_rcc.c ****     }
 859:Drivers/STM32H7xx_HAL_Driver/Src/stm32h7xx_hal_rcc.c ****   }
 860:Drivers/STM32H7xx_HAL_Driver/Src/stm32h7xx_hal_rcc.c ****   return HAL_OK;
 1422              		.loc 1 860 10 view .LVU485
 1423 04d6 0020     		movs	r0, #0
 1424 04d8 3BE0     		b	.L36
 1425              	.L141:
 1426              		.loc 1 860 10 view .LVU486
 1427 04da 0020     		movs	r0, #0
 1428 04dc 39E0     		b	.L36
 1429              	.LVL111:
 1430              	.L91:
 846:Drivers/STM32H7xx_HAL_Driver/Src/stm32h7xx_hal_rcc.c ****       temp2_pllckcfg = RCC->PLL1DIVR;
 1431              		.loc 1 846 7 is_stmt 1 view .LVU487
 846:Drivers/STM32H7xx_HAL_Driver/Src/stm32h7xx_hal_rcc.c ****       temp2_pllckcfg = RCC->PLL1DIVR;
 1432              		.loc 1 846 22 is_stmt 0 view .LVU488
 1433 04de 1549     		ldr	r1, .L149
 1434 04e0 8A6A     		ldr	r2, [r1, #40]
 1435              	.LVL112:
 847:Drivers/STM32H7xx_HAL_Driver/Src/stm32h7xx_hal_rcc.c ****       if(((RCC_OscInitStruct->PLL.PLLState) == RCC_PLL_OFF) ||
 1436              		.loc 1 847 7 is_stmt 1 view .LVU489
 847:Drivers/STM32H7xx_HAL_Driver/Src/stm32h7xx_hal_rcc.c ****       if(((RCC_OscInitStruct->PLL.PLLState) == RCC_PLL_OFF) ||
 1437              		.loc 1 847 22 is_stmt 0 view .LVU490
 1438 04e2 086B     		ldr	r0, [r1, #48]
 1439              	.LVL113:
 848:Drivers/STM32H7xx_HAL_Driver/Src/stm32h7xx_hal_rcc.c **** 	 (READ_BIT(temp1_pllckcfg, RCC_PLLCKSELR_PLLSRC) != RCC_OscInitStruct->PLL.PLLSource) ||
 1440              		.loc 1 848 7 is_stmt 1 view .LVU491
 848:Drivers/STM32H7xx_HAL_Driver/Src/stm32h7xx_hal_rcc.c **** 	 (READ_BIT(temp1_pllckcfg, RCC_PLLCKSELR_PLLSRC) != RCC_OscInitStruct->PLL.PLLSource) ||
 1441              		.loc 1 848 9 is_stmt 0 view .LVU492
 1442 04e4 012B     		cmp	r3, #1
 1443 04e6 35D0     		beq	.L120
 849:Drivers/STM32H7xx_HAL_Driver/Src/stm32h7xx_hal_rcc.c ****          ((READ_BIT(temp1_pllckcfg, RCC_PLLCKSELR_DIVM1) >> RCC_PLLCKSELR_DIVM1_Pos) != RCC_OscInit
 1444              		.loc 1 849 4 discriminator 1 view .LVU493
 1445 04e8 02F00303 		and	r3, r2, #3
 849:Drivers/STM32H7xx_HAL_Driver/Src/stm32h7xx_hal_rcc.c ****          ((READ_BIT(temp1_pllckcfg, RCC_PLLCKSELR_DIVM1) >> RCC_PLLCKSELR_DIVM1_Pos) != RCC_OscInit
 1446              		.loc 1 849 76 discriminator 1 view .LVU494
ARM GAS  C:\Users\cinar\AppData\Local\Temp\ccnsnn81.s 			page 45


 1447 04ec A16A     		ldr	r1, [r4, #40]
 848:Drivers/STM32H7xx_HAL_Driver/Src/stm32h7xx_hal_rcc.c **** 	 (READ_BIT(temp1_pllckcfg, RCC_PLLCKSELR_PLLSRC) != RCC_OscInitStruct->PLL.PLLSource) ||
 1448              		.loc 1 848 61 discriminator 1 view .LVU495
 1449 04ee 8B42     		cmp	r3, r1
 1450 04f0 32D1     		bne	.L121
 850:Drivers/STM32H7xx_HAL_Driver/Src/stm32h7xx_hal_rcc.c ****          (READ_BIT(temp2_pllckcfg, RCC_PLL1DIVR_N1) != (RCC_OscInitStruct->PLL.PLLN - 1U)) ||
 1451              		.loc 1 850 58 view .LVU496
 1452 04f2 C2F30512 		ubfx	r2, r2, #4, #6
 1453              	.LVL114:
 850:Drivers/STM32H7xx_HAL_Driver/Src/stm32h7xx_hal_rcc.c ****          (READ_BIT(temp2_pllckcfg, RCC_PLL1DIVR_N1) != (RCC_OscInitStruct->PLL.PLLN - 1U)) ||
 1454              		.loc 1 850 111 view .LVU497
 1455 04f6 E36A     		ldr	r3, [r4, #44]
 849:Drivers/STM32H7xx_HAL_Driver/Src/stm32h7xx_hal_rcc.c ****          ((READ_BIT(temp1_pllckcfg, RCC_PLLCKSELR_DIVM1) >> RCC_PLLCKSELR_DIVM1_Pos) != RCC_OscInit
 1456              		.loc 1 849 88 view .LVU498
 1457 04f8 9A42     		cmp	r2, r3
 1458 04fa 2FD1     		bne	.L122
 851:Drivers/STM32H7xx_HAL_Driver/Src/stm32h7xx_hal_rcc.c ****          ((READ_BIT(temp2_pllckcfg, RCC_PLL1DIVR_P1) >> RCC_PLL1DIVR_P1_Pos) != (RCC_OscInitStruct-
 1459              		.loc 1 851 11 view .LVU499
 1460 04fc C0F30802 		ubfx	r2, r0, #0, #9
 851:Drivers/STM32H7xx_HAL_Driver/Src/stm32h7xx_hal_rcc.c ****          ((READ_BIT(temp2_pllckcfg, RCC_PLL1DIVR_P1) >> RCC_PLL1DIVR_P1_Pos) != (RCC_OscInitStruct-
 1461              		.loc 1 851 79 view .LVU500
 1462 0500 236B     		ldr	r3, [r4, #48]
 851:Drivers/STM32H7xx_HAL_Driver/Src/stm32h7xx_hal_rcc.c ****          ((READ_BIT(temp2_pllckcfg, RCC_PLL1DIVR_P1) >> RCC_PLL1DIVR_P1_Pos) != (RCC_OscInitStruct-
 1463              		.loc 1 851 85 view .LVU501
 1464 0502 013B     		subs	r3, r3, #1
 850:Drivers/STM32H7xx_HAL_Driver/Src/stm32h7xx_hal_rcc.c ****          (READ_BIT(temp2_pllckcfg, RCC_PLL1DIVR_N1) != (RCC_OscInitStruct->PLL.PLLN - 1U)) ||
 1465              		.loc 1 850 118 view .LVU502
 1466 0504 9A42     		cmp	r2, r3
 1467 0506 2BD1     		bne	.L123
 852:Drivers/STM32H7xx_HAL_Driver/Src/stm32h7xx_hal_rcc.c ****          ((READ_BIT(temp2_pllckcfg, RCC_PLL1DIVR_Q1) >> RCC_PLL1DIVR_Q1_Pos) != (RCC_OscInitStruct-
 1468              		.loc 1 852 54 view .LVU503
 1469 0508 C0F34622 		ubfx	r2, r0, #9, #7
 852:Drivers/STM32H7xx_HAL_Driver/Src/stm32h7xx_hal_rcc.c ****          ((READ_BIT(temp2_pllckcfg, RCC_PLL1DIVR_Q1) >> RCC_PLL1DIVR_Q1_Pos) != (RCC_OscInitStruct-
 1470              		.loc 1 852 104 view .LVU504
 1471 050c 636B     		ldr	r3, [r4, #52]
 852:Drivers/STM32H7xx_HAL_Driver/Src/stm32h7xx_hal_rcc.c ****          ((READ_BIT(temp2_pllckcfg, RCC_PLL1DIVR_Q1) >> RCC_PLL1DIVR_Q1_Pos) != (RCC_OscInitStruct-
 1472              		.loc 1 852 110 view .LVU505
 1473 050e 013B     		subs	r3, r3, #1
 851:Drivers/STM32H7xx_HAL_Driver/Src/stm32h7xx_hal_rcc.c ****          ((READ_BIT(temp2_pllckcfg, RCC_PLL1DIVR_P1) >> RCC_PLL1DIVR_P1_Pos) != (RCC_OscInitStruct-
 1474              		.loc 1 851 92 view .LVU506
 1475 0510 9A42     		cmp	r2, r3
 1476 0512 27D1     		bne	.L124
 853:Drivers/STM32H7xx_HAL_Driver/Src/stm32h7xx_hal_rcc.c ****          ((READ_BIT(temp2_pllckcfg, RCC_PLL1DIVR_R1) >> RCC_PLL1DIVR_R1_Pos) != (RCC_OscInitStruct-
 1477              		.loc 1 853 54 view .LVU507
 1478 0514 C0F30642 		ubfx	r2, r0, #16, #7
 853:Drivers/STM32H7xx_HAL_Driver/Src/stm32h7xx_hal_rcc.c ****          ((READ_BIT(temp2_pllckcfg, RCC_PLL1DIVR_R1) >> RCC_PLL1DIVR_R1_Pos) != (RCC_OscInitStruct-
 1479              		.loc 1 853 104 view .LVU508
 1480 0518 A36B     		ldr	r3, [r4, #56]
 853:Drivers/STM32H7xx_HAL_Driver/Src/stm32h7xx_hal_rcc.c ****          ((READ_BIT(temp2_pllckcfg, RCC_PLL1DIVR_R1) >> RCC_PLL1DIVR_R1_Pos) != (RCC_OscInitStruct-
 1481              		.loc 1 853 110 view .LVU509
 1482 051a 013B     		subs	r3, r3, #1
 852:Drivers/STM32H7xx_HAL_Driver/Src/stm32h7xx_hal_rcc.c ****          ((READ_BIT(temp2_pllckcfg, RCC_PLL1DIVR_Q1) >> RCC_PLL1DIVR_Q1_Pos) != (RCC_OscInitStruct-
 1483              		.loc 1 852 117 view .LVU510
 1484 051c 9A42     		cmp	r2, r3
 1485 051e 23D1     		bne	.L125
 854:Drivers/STM32H7xx_HAL_Driver/Src/stm32h7xx_hal_rcc.c ****       {
 1486              		.loc 1 854 54 view .LVU511
ARM GAS  C:\Users\cinar\AppData\Local\Temp\ccnsnn81.s 			page 46


 1487 0520 C0F30660 		ubfx	r0, r0, #24, #7
 1488              	.LVL115:
 854:Drivers/STM32H7xx_HAL_Driver/Src/stm32h7xx_hal_rcc.c ****       {
 1489              		.loc 1 854 104 view .LVU512
 1490 0524 E36B     		ldr	r3, [r4, #60]
 854:Drivers/STM32H7xx_HAL_Driver/Src/stm32h7xx_hal_rcc.c ****       {
 1491              		.loc 1 854 110 view .LVU513
 1492 0526 013B     		subs	r3, r3, #1
 853:Drivers/STM32H7xx_HAL_Driver/Src/stm32h7xx_hal_rcc.c ****          ((READ_BIT(temp2_pllckcfg, RCC_PLL1DIVR_R1) >> RCC_PLL1DIVR_R1_Pos) != (RCC_OscInitStruct-
 1493              		.loc 1 853 117 view .LVU514
 1494 0528 9842     		cmp	r0, r3
 1495 052a 1FD1     		bne	.L126
 1496              		.loc 1 860 10 view .LVU515
 1497 052c 0020     		movs	r0, #0
 1498 052e 10E0     		b	.L36
 1499              	.LVL116:
 1500              	.L99:
 1501              	.LCFI2:
 1502              		.cfi_def_cfa_offset 0
 1503              		.cfi_restore 3
 1504              		.cfi_restore 4
 1505              		.cfi_restore 5
 1506              		.cfi_restore 14
 415:Drivers/STM32H7xx_HAL_Driver/Src/stm32h7xx_hal_rcc.c ****   }
 1507              		.loc 1 415 12 view .LVU516
 1508 0530 0120     		movs	r0, #1
 1509              	.LVL117:
 861:Drivers/STM32H7xx_HAL_Driver/Src/stm32h7xx_hal_rcc.c **** }
 1510              		.loc 1 861 1 view .LVU517
 1511 0532 7047     		bx	lr
 1512              	.L150:
 1513              		.align	2
 1514              	.L149:
 1515 0534 00440258 		.word	1476543488
 1516 0538 00480258 		.word	1476544512
 1517 053c 0CFCFFFF 		.word	-1012
 1518 0540 0700FFFF 		.word	-65529
 1519              	.LVL118:
 1520              	.L133:
 1521              	.LCFI3:
 1522              		.cfi_def_cfa_offset 16
 1523              		.cfi_offset 3, -16
 1524              		.cfi_offset 4, -12
 1525              		.cfi_offset 5, -8
 1526              		.cfi_offset 14, -4
 1527              	.LBB10:
 433:Drivers/STM32H7xx_HAL_Driver/Src/stm32h7xx_hal_rcc.c ****       }
 1528              		.loc 1 433 16 view .LVU518
 1529 0544 0120     		movs	r0, #1
 1530              	.LVL119:
 433:Drivers/STM32H7xx_HAL_Driver/Src/stm32h7xx_hal_rcc.c ****       }
 1531              		.loc 1 433 16 view .LVU519
 1532 0546 04E0     		b	.L36
 1533              	.LVL120:
 1534              	.L103:
 433:Drivers/STM32H7xx_HAL_Driver/Src/stm32h7xx_hal_rcc.c ****       }
 1535              		.loc 1 433 16 view .LVU520
ARM GAS  C:\Users\cinar\AppData\Local\Temp\ccnsnn81.s 			page 47


 1536              	.LBE10:
 1537              	.LBB11:
 487:Drivers/STM32H7xx_HAL_Driver/Src/stm32h7xx_hal_rcc.c ****       }
 1538              		.loc 1 487 16 view .LVU521
 1539 0548 0120     		movs	r0, #1
 1540 054a 02E0     		b	.L36
 1541              	.LVL121:
 1542              	.L106:
 487:Drivers/STM32H7xx_HAL_Driver/Src/stm32h7xx_hal_rcc.c ****       }
 1543              		.loc 1 487 16 view .LVU522
 1544              	.LBE11:
 1545              	.LBB12:
 554:Drivers/STM32H7xx_HAL_Driver/Src/stm32h7xx_hal_rcc.c ****       }
 1546              		.loc 1 554 16 view .LVU523
 1547 054c 0120     		movs	r0, #1
 1548 054e 00E0     		b	.L36
 1549              	.L116:
 554:Drivers/STM32H7xx_HAL_Driver/Src/stm32h7xx_hal_rcc.c ****       }
 1550              		.loc 1 554 16 view .LVU524
 1551              	.LBE12:
 860:Drivers/STM32H7xx_HAL_Driver/Src/stm32h7xx_hal_rcc.c **** }
 1552              		.loc 1 860 10 view .LVU525
 1553 0550 0020     		movs	r0, #0
 1554              	.LVL122:
 1555              	.L36:
 1556              		.loc 1 861 1 view .LVU526
 1557 0552 38BD     		pop	{r3, r4, r5, pc}
 1558              	.LVL123:
 1559              	.L120:
 856:Drivers/STM32H7xx_HAL_Driver/Src/stm32h7xx_hal_rcc.c ****       }
 1560              		.loc 1 856 16 view .LVU527
 1561 0554 0120     		movs	r0, #1
 1562              	.LVL124:
 856:Drivers/STM32H7xx_HAL_Driver/Src/stm32h7xx_hal_rcc.c ****       }
 1563              		.loc 1 856 16 view .LVU528
 1564 0556 FCE7     		b	.L36
 1565              	.LVL125:
 1566              	.L121:
 856:Drivers/STM32H7xx_HAL_Driver/Src/stm32h7xx_hal_rcc.c ****       }
 1567              		.loc 1 856 16 view .LVU529
 1568 0558 0120     		movs	r0, #1
 1569              	.LVL126:
 856:Drivers/STM32H7xx_HAL_Driver/Src/stm32h7xx_hal_rcc.c ****       }
 1570              		.loc 1 856 16 view .LVU530
 1571 055a FAE7     		b	.L36
 1572              	.LVL127:
 1573              	.L122:
 856:Drivers/STM32H7xx_HAL_Driver/Src/stm32h7xx_hal_rcc.c ****       }
 1574              		.loc 1 856 16 view .LVU531
 1575 055c 0120     		movs	r0, #1
 1576              	.LVL128:
 856:Drivers/STM32H7xx_HAL_Driver/Src/stm32h7xx_hal_rcc.c ****       }
 1577              		.loc 1 856 16 view .LVU532
 1578 055e F8E7     		b	.L36
 1579              	.LVL129:
 1580              	.L123:
 856:Drivers/STM32H7xx_HAL_Driver/Src/stm32h7xx_hal_rcc.c ****       }
ARM GAS  C:\Users\cinar\AppData\Local\Temp\ccnsnn81.s 			page 48


 1581              		.loc 1 856 16 view .LVU533
 1582 0560 0120     		movs	r0, #1
 1583              	.LVL130:
 856:Drivers/STM32H7xx_HAL_Driver/Src/stm32h7xx_hal_rcc.c ****       }
 1584              		.loc 1 856 16 view .LVU534
 1585 0562 F6E7     		b	.L36
 1586              	.LVL131:
 1587              	.L124:
 856:Drivers/STM32H7xx_HAL_Driver/Src/stm32h7xx_hal_rcc.c ****       }
 1588              		.loc 1 856 16 view .LVU535
 1589 0564 0120     		movs	r0, #1
 1590              	.LVL132:
 856:Drivers/STM32H7xx_HAL_Driver/Src/stm32h7xx_hal_rcc.c ****       }
 1591              		.loc 1 856 16 view .LVU536
 1592 0566 F4E7     		b	.L36
 1593              	.LVL133:
 1594              	.L125:
 856:Drivers/STM32H7xx_HAL_Driver/Src/stm32h7xx_hal_rcc.c ****       }
 1595              		.loc 1 856 16 view .LVU537
 1596 0568 0120     		movs	r0, #1
 1597              	.LVL134:
 856:Drivers/STM32H7xx_HAL_Driver/Src/stm32h7xx_hal_rcc.c ****       }
 1598              		.loc 1 856 16 view .LVU538
 1599 056a F2E7     		b	.L36
 1600              	.L126:
 1601 056c 0120     		movs	r0, #1
 1602 056e F0E7     		b	.L36
 1603              		.cfi_endproc
 1604              	.LFE145:
 1606              		.section	.text.HAL_RCC_MCOConfig,"ax",%progbits
 1607              		.align	1
 1608              		.global	HAL_RCC_MCOConfig
 1609              		.syntax unified
 1610              		.thumb
 1611              		.thumb_func
 1612              		.fpu fpv5-d16
 1614              	HAL_RCC_MCOConfig:
 1615              	.LVL135:
 1616              	.LFB147:
 862:Drivers/STM32H7xx_HAL_Driver/Src/stm32h7xx_hal_rcc.c **** 
 863:Drivers/STM32H7xx_HAL_Driver/Src/stm32h7xx_hal_rcc.c **** /**
 864:Drivers/STM32H7xx_HAL_Driver/Src/stm32h7xx_hal_rcc.c ****   * @brief  Initializes the CPU, AHB and APB buses clocks according to the specified
 865:Drivers/STM32H7xx_HAL_Driver/Src/stm32h7xx_hal_rcc.c ****   *         parameters in the RCC_ClkInitStruct.
 866:Drivers/STM32H7xx_HAL_Driver/Src/stm32h7xx_hal_rcc.c ****   * @param  RCC_ClkInitStruct: pointer to an RCC_OscInitTypeDef structure that
 867:Drivers/STM32H7xx_HAL_Driver/Src/stm32h7xx_hal_rcc.c ****   *         contains the configuration information for the RCC peripheral.
 868:Drivers/STM32H7xx_HAL_Driver/Src/stm32h7xx_hal_rcc.c ****   * @param  FLatency: FLASH Latency, this parameter depend on device selected
 869:Drivers/STM32H7xx_HAL_Driver/Src/stm32h7xx_hal_rcc.c ****   *
 870:Drivers/STM32H7xx_HAL_Driver/Src/stm32h7xx_hal_rcc.c ****   * @note   The SystemCoreClock CMSIS variable is used to store System Core Clock Frequency
 871:Drivers/STM32H7xx_HAL_Driver/Src/stm32h7xx_hal_rcc.c ****   *         and updated by HAL_InitTick() function called within this function
 872:Drivers/STM32H7xx_HAL_Driver/Src/stm32h7xx_hal_rcc.c ****   *
 873:Drivers/STM32H7xx_HAL_Driver/Src/stm32h7xx_hal_rcc.c ****   * @note   The HSI is used (enabled by hardware) as system clock source after
 874:Drivers/STM32H7xx_HAL_Driver/Src/stm32h7xx_hal_rcc.c ****   *         start-up from Reset, wake-up from STOP and STANDBY mode, or in case
 875:Drivers/STM32H7xx_HAL_Driver/Src/stm32h7xx_hal_rcc.c ****   *         of failure of the HSE used directly or indirectly as system clock
 876:Drivers/STM32H7xx_HAL_Driver/Src/stm32h7xx_hal_rcc.c ****   *         (if the Clock Security System CSS is enabled).
 877:Drivers/STM32H7xx_HAL_Driver/Src/stm32h7xx_hal_rcc.c ****   *
 878:Drivers/STM32H7xx_HAL_Driver/Src/stm32h7xx_hal_rcc.c ****   * @note   A switch from one clock source to another occurs only if the target
 879:Drivers/STM32H7xx_HAL_Driver/Src/stm32h7xx_hal_rcc.c ****   *         clock source is ready (clock stable after start-up delay or PLL locked).
ARM GAS  C:\Users\cinar\AppData\Local\Temp\ccnsnn81.s 			page 49


 880:Drivers/STM32H7xx_HAL_Driver/Src/stm32h7xx_hal_rcc.c ****   *         If a clock source which is not yet ready is selected, the switch will
 881:Drivers/STM32H7xx_HAL_Driver/Src/stm32h7xx_hal_rcc.c ****   *         occur when the clock source will be ready.
 882:Drivers/STM32H7xx_HAL_Driver/Src/stm32h7xx_hal_rcc.c ****   *         You can use HAL_RCC_GetClockConfig() function to know which clock is
 883:Drivers/STM32H7xx_HAL_Driver/Src/stm32h7xx_hal_rcc.c ****   *         currently used as system clock source.
 884:Drivers/STM32H7xx_HAL_Driver/Src/stm32h7xx_hal_rcc.c ****   * @note   Depending on the device voltage range, the software has to set correctly
 885:Drivers/STM32H7xx_HAL_Driver/Src/stm32h7xx_hal_rcc.c ****   *         D1CPRE[3:0] bits to ensure that  Domain1 core clock not exceed the maximum allowed freq
 886:Drivers/STM32H7xx_HAL_Driver/Src/stm32h7xx_hal_rcc.c ****   *         (for more details refer to section above "Initialization/de-initialization functions")
 887:Drivers/STM32H7xx_HAL_Driver/Src/stm32h7xx_hal_rcc.c ****   * @retval None
 888:Drivers/STM32H7xx_HAL_Driver/Src/stm32h7xx_hal_rcc.c ****   */
 889:Drivers/STM32H7xx_HAL_Driver/Src/stm32h7xx_hal_rcc.c **** HAL_StatusTypeDef HAL_RCC_ClockConfig(RCC_ClkInitTypeDef  *RCC_ClkInitStruct, uint32_t FLatency)
 890:Drivers/STM32H7xx_HAL_Driver/Src/stm32h7xx_hal_rcc.c **** {
 891:Drivers/STM32H7xx_HAL_Driver/Src/stm32h7xx_hal_rcc.c ****   HAL_StatusTypeDef halstatus;
 892:Drivers/STM32H7xx_HAL_Driver/Src/stm32h7xx_hal_rcc.c ****   uint32_t tickstart;
 893:Drivers/STM32H7xx_HAL_Driver/Src/stm32h7xx_hal_rcc.c ****   uint32_t common_system_clock;
 894:Drivers/STM32H7xx_HAL_Driver/Src/stm32h7xx_hal_rcc.c **** 
 895:Drivers/STM32H7xx_HAL_Driver/Src/stm32h7xx_hal_rcc.c ****    /* Check Null pointer */
 896:Drivers/STM32H7xx_HAL_Driver/Src/stm32h7xx_hal_rcc.c ****   if(RCC_ClkInitStruct == NULL)
 897:Drivers/STM32H7xx_HAL_Driver/Src/stm32h7xx_hal_rcc.c ****   {
 898:Drivers/STM32H7xx_HAL_Driver/Src/stm32h7xx_hal_rcc.c ****     return HAL_ERROR;
 899:Drivers/STM32H7xx_HAL_Driver/Src/stm32h7xx_hal_rcc.c ****   }
 900:Drivers/STM32H7xx_HAL_Driver/Src/stm32h7xx_hal_rcc.c **** 
 901:Drivers/STM32H7xx_HAL_Driver/Src/stm32h7xx_hal_rcc.c ****   /* Check the parameters */
 902:Drivers/STM32H7xx_HAL_Driver/Src/stm32h7xx_hal_rcc.c ****   assert_param(IS_RCC_CLOCKTYPE(RCC_ClkInitStruct->ClockType));
 903:Drivers/STM32H7xx_HAL_Driver/Src/stm32h7xx_hal_rcc.c ****   assert_param(IS_FLASH_LATENCY(FLatency));
 904:Drivers/STM32H7xx_HAL_Driver/Src/stm32h7xx_hal_rcc.c **** 
 905:Drivers/STM32H7xx_HAL_Driver/Src/stm32h7xx_hal_rcc.c ****   /* To correctly read data from FLASH memory, the number of wait states (LATENCY)
 906:Drivers/STM32H7xx_HAL_Driver/Src/stm32h7xx_hal_rcc.c ****     must be correctly programmed according to the frequency of the CPU clock
 907:Drivers/STM32H7xx_HAL_Driver/Src/stm32h7xx_hal_rcc.c ****     (HCLK) and the supply voltage of the device. */
 908:Drivers/STM32H7xx_HAL_Driver/Src/stm32h7xx_hal_rcc.c **** 
 909:Drivers/STM32H7xx_HAL_Driver/Src/stm32h7xx_hal_rcc.c ****   /* Increasing the CPU frequency */
 910:Drivers/STM32H7xx_HAL_Driver/Src/stm32h7xx_hal_rcc.c ****   if(FLatency > __HAL_FLASH_GET_LATENCY())
 911:Drivers/STM32H7xx_HAL_Driver/Src/stm32h7xx_hal_rcc.c ****   {
 912:Drivers/STM32H7xx_HAL_Driver/Src/stm32h7xx_hal_rcc.c ****     /* Program the new number of wait states to the LATENCY bits in the FLASH_ACR register */
 913:Drivers/STM32H7xx_HAL_Driver/Src/stm32h7xx_hal_rcc.c ****     __HAL_FLASH_SET_LATENCY(FLatency);
 914:Drivers/STM32H7xx_HAL_Driver/Src/stm32h7xx_hal_rcc.c **** 
 915:Drivers/STM32H7xx_HAL_Driver/Src/stm32h7xx_hal_rcc.c ****     /* Check that the new number of wait states is taken into account to access the Flash
 916:Drivers/STM32H7xx_HAL_Driver/Src/stm32h7xx_hal_rcc.c ****     memory by reading the FLASH_ACR register */
 917:Drivers/STM32H7xx_HAL_Driver/Src/stm32h7xx_hal_rcc.c ****     if(__HAL_FLASH_GET_LATENCY() != FLatency)
 918:Drivers/STM32H7xx_HAL_Driver/Src/stm32h7xx_hal_rcc.c ****     {
 919:Drivers/STM32H7xx_HAL_Driver/Src/stm32h7xx_hal_rcc.c ****       return HAL_ERROR;
 920:Drivers/STM32H7xx_HAL_Driver/Src/stm32h7xx_hal_rcc.c ****     }
 921:Drivers/STM32H7xx_HAL_Driver/Src/stm32h7xx_hal_rcc.c **** 
 922:Drivers/STM32H7xx_HAL_Driver/Src/stm32h7xx_hal_rcc.c ****   }
 923:Drivers/STM32H7xx_HAL_Driver/Src/stm32h7xx_hal_rcc.c **** 
 924:Drivers/STM32H7xx_HAL_Driver/Src/stm32h7xx_hal_rcc.c ****   /* Increasing the BUS frequency divider */
 925:Drivers/STM32H7xx_HAL_Driver/Src/stm32h7xx_hal_rcc.c ****   /*-------------------------- D1PCLK1/CDPCLK1 Configuration ---------------------------*/
 926:Drivers/STM32H7xx_HAL_Driver/Src/stm32h7xx_hal_rcc.c ****   if(((RCC_ClkInitStruct->ClockType) & RCC_CLOCKTYPE_D1PCLK1) == RCC_CLOCKTYPE_D1PCLK1)
 927:Drivers/STM32H7xx_HAL_Driver/Src/stm32h7xx_hal_rcc.c ****   {
 928:Drivers/STM32H7xx_HAL_Driver/Src/stm32h7xx_hal_rcc.c **** #if defined (RCC_D1CFGR_D1PPRE)
 929:Drivers/STM32H7xx_HAL_Driver/Src/stm32h7xx_hal_rcc.c ****     if((RCC_ClkInitStruct->APB3CLKDivider) > (RCC->D1CFGR & RCC_D1CFGR_D1PPRE))
 930:Drivers/STM32H7xx_HAL_Driver/Src/stm32h7xx_hal_rcc.c ****     {
 931:Drivers/STM32H7xx_HAL_Driver/Src/stm32h7xx_hal_rcc.c ****       assert_param(IS_RCC_D1PCLK1(RCC_ClkInitStruct->APB3CLKDivider));
 932:Drivers/STM32H7xx_HAL_Driver/Src/stm32h7xx_hal_rcc.c ****       MODIFY_REG(RCC->D1CFGR, RCC_D1CFGR_D1PPRE, RCC_ClkInitStruct->APB3CLKDivider);
 933:Drivers/STM32H7xx_HAL_Driver/Src/stm32h7xx_hal_rcc.c ****     }
 934:Drivers/STM32H7xx_HAL_Driver/Src/stm32h7xx_hal_rcc.c **** #else
 935:Drivers/STM32H7xx_HAL_Driver/Src/stm32h7xx_hal_rcc.c ****     if((RCC_ClkInitStruct->APB3CLKDivider) > (RCC->CDCFGR1 & RCC_CDCFGR1_CDPPRE))
 936:Drivers/STM32H7xx_HAL_Driver/Src/stm32h7xx_hal_rcc.c ****     {
ARM GAS  C:\Users\cinar\AppData\Local\Temp\ccnsnn81.s 			page 50


 937:Drivers/STM32H7xx_HAL_Driver/Src/stm32h7xx_hal_rcc.c ****       assert_param(IS_RCC_CDPCLK1(RCC_ClkInitStruct->APB3CLKDivider));
 938:Drivers/STM32H7xx_HAL_Driver/Src/stm32h7xx_hal_rcc.c ****       MODIFY_REG(RCC->CDCFGR1, RCC_CDCFGR1_CDPPRE, RCC_ClkInitStruct->APB3CLKDivider);
 939:Drivers/STM32H7xx_HAL_Driver/Src/stm32h7xx_hal_rcc.c ****     }
 940:Drivers/STM32H7xx_HAL_Driver/Src/stm32h7xx_hal_rcc.c **** #endif
 941:Drivers/STM32H7xx_HAL_Driver/Src/stm32h7xx_hal_rcc.c ****   }
 942:Drivers/STM32H7xx_HAL_Driver/Src/stm32h7xx_hal_rcc.c **** 
 943:Drivers/STM32H7xx_HAL_Driver/Src/stm32h7xx_hal_rcc.c ****   /*-------------------------- PCLK1 Configuration ---------------------------*/
 944:Drivers/STM32H7xx_HAL_Driver/Src/stm32h7xx_hal_rcc.c ****   if(((RCC_ClkInitStruct->ClockType) & RCC_CLOCKTYPE_PCLK1) == RCC_CLOCKTYPE_PCLK1)
 945:Drivers/STM32H7xx_HAL_Driver/Src/stm32h7xx_hal_rcc.c ****   {
 946:Drivers/STM32H7xx_HAL_Driver/Src/stm32h7xx_hal_rcc.c **** #if defined (RCC_D2CFGR_D2PPRE1)
 947:Drivers/STM32H7xx_HAL_Driver/Src/stm32h7xx_hal_rcc.c ****     if((RCC_ClkInitStruct->APB1CLKDivider) > (RCC->D2CFGR & RCC_D2CFGR_D2PPRE1))
 948:Drivers/STM32H7xx_HAL_Driver/Src/stm32h7xx_hal_rcc.c ****     {
 949:Drivers/STM32H7xx_HAL_Driver/Src/stm32h7xx_hal_rcc.c ****       assert_param(IS_RCC_PCLK1(RCC_ClkInitStruct->APB1CLKDivider));
 950:Drivers/STM32H7xx_HAL_Driver/Src/stm32h7xx_hal_rcc.c ****       MODIFY_REG(RCC->D2CFGR, RCC_D2CFGR_D2PPRE1, (RCC_ClkInitStruct->APB1CLKDivider));
 951:Drivers/STM32H7xx_HAL_Driver/Src/stm32h7xx_hal_rcc.c ****     }
 952:Drivers/STM32H7xx_HAL_Driver/Src/stm32h7xx_hal_rcc.c **** #else
 953:Drivers/STM32H7xx_HAL_Driver/Src/stm32h7xx_hal_rcc.c ****     if((RCC_ClkInitStruct->APB1CLKDivider) > (RCC->CDCFGR2 & RCC_CDCFGR2_CDPPRE1))
 954:Drivers/STM32H7xx_HAL_Driver/Src/stm32h7xx_hal_rcc.c ****     {
 955:Drivers/STM32H7xx_HAL_Driver/Src/stm32h7xx_hal_rcc.c ****       assert_param(IS_RCC_PCLK1(RCC_ClkInitStruct->APB1CLKDivider));
 956:Drivers/STM32H7xx_HAL_Driver/Src/stm32h7xx_hal_rcc.c ****       MODIFY_REG(RCC->CDCFGR2, RCC_CDCFGR2_CDPPRE1, (RCC_ClkInitStruct->APB1CLKDivider));
 957:Drivers/STM32H7xx_HAL_Driver/Src/stm32h7xx_hal_rcc.c ****   }
 958:Drivers/STM32H7xx_HAL_Driver/Src/stm32h7xx_hal_rcc.c **** #endif
 959:Drivers/STM32H7xx_HAL_Driver/Src/stm32h7xx_hal_rcc.c ****     }
 960:Drivers/STM32H7xx_HAL_Driver/Src/stm32h7xx_hal_rcc.c ****   /*-------------------------- PCLK2 Configuration ---------------------------*/
 961:Drivers/STM32H7xx_HAL_Driver/Src/stm32h7xx_hal_rcc.c ****   if(((RCC_ClkInitStruct->ClockType) & RCC_CLOCKTYPE_PCLK2) == RCC_CLOCKTYPE_PCLK2)
 962:Drivers/STM32H7xx_HAL_Driver/Src/stm32h7xx_hal_rcc.c ****   {
 963:Drivers/STM32H7xx_HAL_Driver/Src/stm32h7xx_hal_rcc.c **** #if defined(RCC_D2CFGR_D2PPRE2)
 964:Drivers/STM32H7xx_HAL_Driver/Src/stm32h7xx_hal_rcc.c ****     if((RCC_ClkInitStruct->APB2CLKDivider) > (RCC->D2CFGR & RCC_D2CFGR_D2PPRE2))
 965:Drivers/STM32H7xx_HAL_Driver/Src/stm32h7xx_hal_rcc.c ****     {
 966:Drivers/STM32H7xx_HAL_Driver/Src/stm32h7xx_hal_rcc.c ****       assert_param(IS_RCC_PCLK2(RCC_ClkInitStruct->APB2CLKDivider));
 967:Drivers/STM32H7xx_HAL_Driver/Src/stm32h7xx_hal_rcc.c ****       MODIFY_REG(RCC->D2CFGR, RCC_D2CFGR_D2PPRE2, (RCC_ClkInitStruct->APB2CLKDivider));
 968:Drivers/STM32H7xx_HAL_Driver/Src/stm32h7xx_hal_rcc.c ****     }
 969:Drivers/STM32H7xx_HAL_Driver/Src/stm32h7xx_hal_rcc.c **** #else
 970:Drivers/STM32H7xx_HAL_Driver/Src/stm32h7xx_hal_rcc.c ****      if((RCC_ClkInitStruct->APB2CLKDivider) > (RCC->CDCFGR2 & RCC_CDCFGR2_CDPPRE2))
 971:Drivers/STM32H7xx_HAL_Driver/Src/stm32h7xx_hal_rcc.c ****     {
 972:Drivers/STM32H7xx_HAL_Driver/Src/stm32h7xx_hal_rcc.c ****       assert_param(IS_RCC_PCLK2(RCC_ClkInitStruct->APB2CLKDivider));
 973:Drivers/STM32H7xx_HAL_Driver/Src/stm32h7xx_hal_rcc.c ****       MODIFY_REG(RCC->CDCFGR2, RCC_CDCFGR2_CDPPRE2, (RCC_ClkInitStruct->APB2CLKDivider));
 974:Drivers/STM32H7xx_HAL_Driver/Src/stm32h7xx_hal_rcc.c ****     }
 975:Drivers/STM32H7xx_HAL_Driver/Src/stm32h7xx_hal_rcc.c **** #endif
 976:Drivers/STM32H7xx_HAL_Driver/Src/stm32h7xx_hal_rcc.c ****   }
 977:Drivers/STM32H7xx_HAL_Driver/Src/stm32h7xx_hal_rcc.c **** 
 978:Drivers/STM32H7xx_HAL_Driver/Src/stm32h7xx_hal_rcc.c ****   /*-------------------------- D3PCLK1 Configuration ---------------------------*/
 979:Drivers/STM32H7xx_HAL_Driver/Src/stm32h7xx_hal_rcc.c ****   if(((RCC_ClkInitStruct->ClockType) & RCC_CLOCKTYPE_D3PCLK1) == RCC_CLOCKTYPE_D3PCLK1)
 980:Drivers/STM32H7xx_HAL_Driver/Src/stm32h7xx_hal_rcc.c ****   {
 981:Drivers/STM32H7xx_HAL_Driver/Src/stm32h7xx_hal_rcc.c **** #if defined(RCC_D3CFGR_D3PPRE)
 982:Drivers/STM32H7xx_HAL_Driver/Src/stm32h7xx_hal_rcc.c ****     if((RCC_ClkInitStruct->APB4CLKDivider) > (RCC->D3CFGR & RCC_D3CFGR_D3PPRE))
 983:Drivers/STM32H7xx_HAL_Driver/Src/stm32h7xx_hal_rcc.c ****     {
 984:Drivers/STM32H7xx_HAL_Driver/Src/stm32h7xx_hal_rcc.c ****       assert_param(IS_RCC_D3PCLK1(RCC_ClkInitStruct->APB4CLKDivider));
 985:Drivers/STM32H7xx_HAL_Driver/Src/stm32h7xx_hal_rcc.c ****       MODIFY_REG(RCC->D3CFGR, RCC_D3CFGR_D3PPRE, (RCC_ClkInitStruct->APB4CLKDivider) );
 986:Drivers/STM32H7xx_HAL_Driver/Src/stm32h7xx_hal_rcc.c ****     }
 987:Drivers/STM32H7xx_HAL_Driver/Src/stm32h7xx_hal_rcc.c **** #else
 988:Drivers/STM32H7xx_HAL_Driver/Src/stm32h7xx_hal_rcc.c ****     if((RCC_ClkInitStruct->APB4CLKDivider) > (RCC->SRDCFGR & RCC_SRDCFGR_SRDPPRE))
 989:Drivers/STM32H7xx_HAL_Driver/Src/stm32h7xx_hal_rcc.c ****     {
 990:Drivers/STM32H7xx_HAL_Driver/Src/stm32h7xx_hal_rcc.c ****       assert_param(IS_RCC_D3PCLK1(RCC_ClkInitStruct->APB4CLKDivider));
 991:Drivers/STM32H7xx_HAL_Driver/Src/stm32h7xx_hal_rcc.c ****       MODIFY_REG(RCC->SRDCFGR, RCC_SRDCFGR_SRDPPRE, (RCC_ClkInitStruct->APB4CLKDivider) );
 992:Drivers/STM32H7xx_HAL_Driver/Src/stm32h7xx_hal_rcc.c ****     }
 993:Drivers/STM32H7xx_HAL_Driver/Src/stm32h7xx_hal_rcc.c **** #endif
ARM GAS  C:\Users\cinar\AppData\Local\Temp\ccnsnn81.s 			page 51


 994:Drivers/STM32H7xx_HAL_Driver/Src/stm32h7xx_hal_rcc.c ****   }
 995:Drivers/STM32H7xx_HAL_Driver/Src/stm32h7xx_hal_rcc.c **** 
 996:Drivers/STM32H7xx_HAL_Driver/Src/stm32h7xx_hal_rcc.c ****    /*-------------------------- HCLK Configuration --------------------------*/
 997:Drivers/STM32H7xx_HAL_Driver/Src/stm32h7xx_hal_rcc.c ****   if(((RCC_ClkInitStruct->ClockType) & RCC_CLOCKTYPE_HCLK) == RCC_CLOCKTYPE_HCLK)
 998:Drivers/STM32H7xx_HAL_Driver/Src/stm32h7xx_hal_rcc.c ****   {
 999:Drivers/STM32H7xx_HAL_Driver/Src/stm32h7xx_hal_rcc.c **** #if defined (RCC_D1CFGR_HPRE)
1000:Drivers/STM32H7xx_HAL_Driver/Src/stm32h7xx_hal_rcc.c ****     if((RCC_ClkInitStruct->AHBCLKDivider) > (RCC->D1CFGR & RCC_D1CFGR_HPRE))
1001:Drivers/STM32H7xx_HAL_Driver/Src/stm32h7xx_hal_rcc.c ****     {
1002:Drivers/STM32H7xx_HAL_Driver/Src/stm32h7xx_hal_rcc.c ****       /* Set the new HCLK clock divider */
1003:Drivers/STM32H7xx_HAL_Driver/Src/stm32h7xx_hal_rcc.c ****       assert_param(IS_RCC_HCLK(RCC_ClkInitStruct->AHBCLKDivider));
1004:Drivers/STM32H7xx_HAL_Driver/Src/stm32h7xx_hal_rcc.c ****       MODIFY_REG(RCC->D1CFGR, RCC_D1CFGR_HPRE, RCC_ClkInitStruct->AHBCLKDivider);
1005:Drivers/STM32H7xx_HAL_Driver/Src/stm32h7xx_hal_rcc.c ****     }
1006:Drivers/STM32H7xx_HAL_Driver/Src/stm32h7xx_hal_rcc.c **** #else
1007:Drivers/STM32H7xx_HAL_Driver/Src/stm32h7xx_hal_rcc.c ****         if((RCC_ClkInitStruct->AHBCLKDivider) > (RCC->CDCFGR1 & RCC_CDCFGR1_HPRE))
1008:Drivers/STM32H7xx_HAL_Driver/Src/stm32h7xx_hal_rcc.c ****     {
1009:Drivers/STM32H7xx_HAL_Driver/Src/stm32h7xx_hal_rcc.c ****       /* Set the new HCLK clock divider */
1010:Drivers/STM32H7xx_HAL_Driver/Src/stm32h7xx_hal_rcc.c ****       assert_param(IS_RCC_HCLK(RCC_ClkInitStruct->AHBCLKDivider));
1011:Drivers/STM32H7xx_HAL_Driver/Src/stm32h7xx_hal_rcc.c ****       MODIFY_REG(RCC->CDCFGR1, RCC_CDCFGR1_HPRE, RCC_ClkInitStruct->AHBCLKDivider);
1012:Drivers/STM32H7xx_HAL_Driver/Src/stm32h7xx_hal_rcc.c ****     }
1013:Drivers/STM32H7xx_HAL_Driver/Src/stm32h7xx_hal_rcc.c **** #endif
1014:Drivers/STM32H7xx_HAL_Driver/Src/stm32h7xx_hal_rcc.c ****   }
1015:Drivers/STM32H7xx_HAL_Driver/Src/stm32h7xx_hal_rcc.c **** 
1016:Drivers/STM32H7xx_HAL_Driver/Src/stm32h7xx_hal_rcc.c ****     /*------------------------- SYSCLK Configuration -------------------------*/
1017:Drivers/STM32H7xx_HAL_Driver/Src/stm32h7xx_hal_rcc.c ****     if(((RCC_ClkInitStruct->ClockType) & RCC_CLOCKTYPE_SYSCLK) == RCC_CLOCKTYPE_SYSCLK)
1018:Drivers/STM32H7xx_HAL_Driver/Src/stm32h7xx_hal_rcc.c ****     {
1019:Drivers/STM32H7xx_HAL_Driver/Src/stm32h7xx_hal_rcc.c ****       assert_param(IS_RCC_SYSCLK(RCC_ClkInitStruct->SYSCLKDivider));
1020:Drivers/STM32H7xx_HAL_Driver/Src/stm32h7xx_hal_rcc.c ****       assert_param(IS_RCC_SYSCLKSOURCE(RCC_ClkInitStruct->SYSCLKSource));
1021:Drivers/STM32H7xx_HAL_Driver/Src/stm32h7xx_hal_rcc.c **** #if defined(RCC_D1CFGR_D1CPRE)
1022:Drivers/STM32H7xx_HAL_Driver/Src/stm32h7xx_hal_rcc.c ****       MODIFY_REG(RCC->D1CFGR, RCC_D1CFGR_D1CPRE, RCC_ClkInitStruct->SYSCLKDivider);
1023:Drivers/STM32H7xx_HAL_Driver/Src/stm32h7xx_hal_rcc.c **** #else
1024:Drivers/STM32H7xx_HAL_Driver/Src/stm32h7xx_hal_rcc.c ****       MODIFY_REG(RCC->CDCFGR1, RCC_CDCFGR1_CDCPRE, RCC_ClkInitStruct->SYSCLKDivider);
1025:Drivers/STM32H7xx_HAL_Driver/Src/stm32h7xx_hal_rcc.c **** #endif
1026:Drivers/STM32H7xx_HAL_Driver/Src/stm32h7xx_hal_rcc.c ****       /* HSE is selected as System Clock Source */
1027:Drivers/STM32H7xx_HAL_Driver/Src/stm32h7xx_hal_rcc.c ****       if(RCC_ClkInitStruct->SYSCLKSource == RCC_SYSCLKSOURCE_HSE)
1028:Drivers/STM32H7xx_HAL_Driver/Src/stm32h7xx_hal_rcc.c ****       {
1029:Drivers/STM32H7xx_HAL_Driver/Src/stm32h7xx_hal_rcc.c ****         /* Check the HSE ready flag */
1030:Drivers/STM32H7xx_HAL_Driver/Src/stm32h7xx_hal_rcc.c ****         if(__HAL_RCC_GET_FLAG(RCC_FLAG_HSERDY) == 0U)
1031:Drivers/STM32H7xx_HAL_Driver/Src/stm32h7xx_hal_rcc.c ****         {
1032:Drivers/STM32H7xx_HAL_Driver/Src/stm32h7xx_hal_rcc.c ****           return HAL_ERROR;
1033:Drivers/STM32H7xx_HAL_Driver/Src/stm32h7xx_hal_rcc.c ****         }
1034:Drivers/STM32H7xx_HAL_Driver/Src/stm32h7xx_hal_rcc.c ****       }
1035:Drivers/STM32H7xx_HAL_Driver/Src/stm32h7xx_hal_rcc.c ****       /* PLL is selected as System Clock Source */
1036:Drivers/STM32H7xx_HAL_Driver/Src/stm32h7xx_hal_rcc.c ****       else if(RCC_ClkInitStruct->SYSCLKSource == RCC_SYSCLKSOURCE_PLLCLK)
1037:Drivers/STM32H7xx_HAL_Driver/Src/stm32h7xx_hal_rcc.c ****       {
1038:Drivers/STM32H7xx_HAL_Driver/Src/stm32h7xx_hal_rcc.c ****         /* Check the PLL ready flag */
1039:Drivers/STM32H7xx_HAL_Driver/Src/stm32h7xx_hal_rcc.c ****         if(__HAL_RCC_GET_FLAG(RCC_FLAG_PLLRDY) == 0U)
1040:Drivers/STM32H7xx_HAL_Driver/Src/stm32h7xx_hal_rcc.c ****         {
1041:Drivers/STM32H7xx_HAL_Driver/Src/stm32h7xx_hal_rcc.c ****           return HAL_ERROR;
1042:Drivers/STM32H7xx_HAL_Driver/Src/stm32h7xx_hal_rcc.c ****         }
1043:Drivers/STM32H7xx_HAL_Driver/Src/stm32h7xx_hal_rcc.c ****       }
1044:Drivers/STM32H7xx_HAL_Driver/Src/stm32h7xx_hal_rcc.c ****       /* CSI is selected as System Clock Source */
1045:Drivers/STM32H7xx_HAL_Driver/Src/stm32h7xx_hal_rcc.c ****       else if(RCC_ClkInitStruct->SYSCLKSource == RCC_SYSCLKSOURCE_CSI)
1046:Drivers/STM32H7xx_HAL_Driver/Src/stm32h7xx_hal_rcc.c ****       {
1047:Drivers/STM32H7xx_HAL_Driver/Src/stm32h7xx_hal_rcc.c ****         /* Check the PLL ready flag */
1048:Drivers/STM32H7xx_HAL_Driver/Src/stm32h7xx_hal_rcc.c ****         if(__HAL_RCC_GET_FLAG(RCC_FLAG_CSIRDY) == 0U)
1049:Drivers/STM32H7xx_HAL_Driver/Src/stm32h7xx_hal_rcc.c ****         {
1050:Drivers/STM32H7xx_HAL_Driver/Src/stm32h7xx_hal_rcc.c ****           return HAL_ERROR;
ARM GAS  C:\Users\cinar\AppData\Local\Temp\ccnsnn81.s 			page 52


1051:Drivers/STM32H7xx_HAL_Driver/Src/stm32h7xx_hal_rcc.c ****         }
1052:Drivers/STM32H7xx_HAL_Driver/Src/stm32h7xx_hal_rcc.c ****       }
1053:Drivers/STM32H7xx_HAL_Driver/Src/stm32h7xx_hal_rcc.c ****       /* HSI is selected as System Clock Source */
1054:Drivers/STM32H7xx_HAL_Driver/Src/stm32h7xx_hal_rcc.c ****       else
1055:Drivers/STM32H7xx_HAL_Driver/Src/stm32h7xx_hal_rcc.c ****       {
1056:Drivers/STM32H7xx_HAL_Driver/Src/stm32h7xx_hal_rcc.c ****         /* Check the HSI ready flag */
1057:Drivers/STM32H7xx_HAL_Driver/Src/stm32h7xx_hal_rcc.c ****         if(__HAL_RCC_GET_FLAG(RCC_FLAG_HSIRDY) == 0U)
1058:Drivers/STM32H7xx_HAL_Driver/Src/stm32h7xx_hal_rcc.c ****         {
1059:Drivers/STM32H7xx_HAL_Driver/Src/stm32h7xx_hal_rcc.c ****           return HAL_ERROR;
1060:Drivers/STM32H7xx_HAL_Driver/Src/stm32h7xx_hal_rcc.c ****         }
1061:Drivers/STM32H7xx_HAL_Driver/Src/stm32h7xx_hal_rcc.c ****       }
1062:Drivers/STM32H7xx_HAL_Driver/Src/stm32h7xx_hal_rcc.c ****       MODIFY_REG(RCC->CFGR, RCC_CFGR_SW, RCC_ClkInitStruct->SYSCLKSource);
1063:Drivers/STM32H7xx_HAL_Driver/Src/stm32h7xx_hal_rcc.c **** 
1064:Drivers/STM32H7xx_HAL_Driver/Src/stm32h7xx_hal_rcc.c ****       /* Get Start Tick*/
1065:Drivers/STM32H7xx_HAL_Driver/Src/stm32h7xx_hal_rcc.c ****       tickstart = HAL_GetTick();
1066:Drivers/STM32H7xx_HAL_Driver/Src/stm32h7xx_hal_rcc.c **** 
1067:Drivers/STM32H7xx_HAL_Driver/Src/stm32h7xx_hal_rcc.c ****         while (__HAL_RCC_GET_SYSCLK_SOURCE() !=  (RCC_ClkInitStruct->SYSCLKSource << RCC_CFGR_SWS_P
1068:Drivers/STM32H7xx_HAL_Driver/Src/stm32h7xx_hal_rcc.c ****         {
1069:Drivers/STM32H7xx_HAL_Driver/Src/stm32h7xx_hal_rcc.c ****           if((HAL_GetTick() - tickstart ) > CLOCKSWITCH_TIMEOUT_VALUE)
1070:Drivers/STM32H7xx_HAL_Driver/Src/stm32h7xx_hal_rcc.c ****           {
1071:Drivers/STM32H7xx_HAL_Driver/Src/stm32h7xx_hal_rcc.c ****             return HAL_TIMEOUT;
1072:Drivers/STM32H7xx_HAL_Driver/Src/stm32h7xx_hal_rcc.c ****           }
1073:Drivers/STM32H7xx_HAL_Driver/Src/stm32h7xx_hal_rcc.c ****         }
1074:Drivers/STM32H7xx_HAL_Driver/Src/stm32h7xx_hal_rcc.c **** 
1075:Drivers/STM32H7xx_HAL_Driver/Src/stm32h7xx_hal_rcc.c ****     }
1076:Drivers/STM32H7xx_HAL_Driver/Src/stm32h7xx_hal_rcc.c **** 
1077:Drivers/STM32H7xx_HAL_Driver/Src/stm32h7xx_hal_rcc.c ****     /* Decreasing the BUS frequency divider */
1078:Drivers/STM32H7xx_HAL_Driver/Src/stm32h7xx_hal_rcc.c ****    /*-------------------------- HCLK Configuration --------------------------*/
1079:Drivers/STM32H7xx_HAL_Driver/Src/stm32h7xx_hal_rcc.c ****   if(((RCC_ClkInitStruct->ClockType) & RCC_CLOCKTYPE_HCLK) == RCC_CLOCKTYPE_HCLK)
1080:Drivers/STM32H7xx_HAL_Driver/Src/stm32h7xx_hal_rcc.c ****   {
1081:Drivers/STM32H7xx_HAL_Driver/Src/stm32h7xx_hal_rcc.c **** #if defined(RCC_D1CFGR_HPRE)
1082:Drivers/STM32H7xx_HAL_Driver/Src/stm32h7xx_hal_rcc.c ****     if((RCC_ClkInitStruct->AHBCLKDivider) < (RCC->D1CFGR & RCC_D1CFGR_HPRE))
1083:Drivers/STM32H7xx_HAL_Driver/Src/stm32h7xx_hal_rcc.c ****     {
1084:Drivers/STM32H7xx_HAL_Driver/Src/stm32h7xx_hal_rcc.c ****       /* Set the new HCLK clock divider */
1085:Drivers/STM32H7xx_HAL_Driver/Src/stm32h7xx_hal_rcc.c ****       assert_param(IS_RCC_HCLK(RCC_ClkInitStruct->AHBCLKDivider));
1086:Drivers/STM32H7xx_HAL_Driver/Src/stm32h7xx_hal_rcc.c ****       MODIFY_REG(RCC->D1CFGR, RCC_D1CFGR_HPRE, RCC_ClkInitStruct->AHBCLKDivider);
1087:Drivers/STM32H7xx_HAL_Driver/Src/stm32h7xx_hal_rcc.c ****     }
1088:Drivers/STM32H7xx_HAL_Driver/Src/stm32h7xx_hal_rcc.c **** #else
1089:Drivers/STM32H7xx_HAL_Driver/Src/stm32h7xx_hal_rcc.c ****     if((RCC_ClkInitStruct->AHBCLKDivider) < (RCC->CDCFGR1 & RCC_CDCFGR1_HPRE))
1090:Drivers/STM32H7xx_HAL_Driver/Src/stm32h7xx_hal_rcc.c ****     {
1091:Drivers/STM32H7xx_HAL_Driver/Src/stm32h7xx_hal_rcc.c ****       /* Set the new HCLK clock divider */
1092:Drivers/STM32H7xx_HAL_Driver/Src/stm32h7xx_hal_rcc.c ****       assert_param(IS_RCC_HCLK(RCC_ClkInitStruct->AHBCLKDivider));
1093:Drivers/STM32H7xx_HAL_Driver/Src/stm32h7xx_hal_rcc.c ****       MODIFY_REG(RCC->CDCFGR1, RCC_CDCFGR1_HPRE, RCC_ClkInitStruct->AHBCLKDivider);
1094:Drivers/STM32H7xx_HAL_Driver/Src/stm32h7xx_hal_rcc.c ****     }
1095:Drivers/STM32H7xx_HAL_Driver/Src/stm32h7xx_hal_rcc.c **** #endif
1096:Drivers/STM32H7xx_HAL_Driver/Src/stm32h7xx_hal_rcc.c ****   }
1097:Drivers/STM32H7xx_HAL_Driver/Src/stm32h7xx_hal_rcc.c **** 
1098:Drivers/STM32H7xx_HAL_Driver/Src/stm32h7xx_hal_rcc.c ****   /* Decreasing the number of wait states because of lower CPU frequency */
1099:Drivers/STM32H7xx_HAL_Driver/Src/stm32h7xx_hal_rcc.c ****   if(FLatency < __HAL_FLASH_GET_LATENCY())
1100:Drivers/STM32H7xx_HAL_Driver/Src/stm32h7xx_hal_rcc.c ****   {
1101:Drivers/STM32H7xx_HAL_Driver/Src/stm32h7xx_hal_rcc.c ****     /* Program the new number of wait states to the LATENCY bits in the FLASH_ACR register */
1102:Drivers/STM32H7xx_HAL_Driver/Src/stm32h7xx_hal_rcc.c ****     __HAL_FLASH_SET_LATENCY(FLatency);
1103:Drivers/STM32H7xx_HAL_Driver/Src/stm32h7xx_hal_rcc.c **** 
1104:Drivers/STM32H7xx_HAL_Driver/Src/stm32h7xx_hal_rcc.c ****     /* Check that the new number of wait states is taken into account to access the Flash
1105:Drivers/STM32H7xx_HAL_Driver/Src/stm32h7xx_hal_rcc.c ****     memory by reading the FLASH_ACR register */
1106:Drivers/STM32H7xx_HAL_Driver/Src/stm32h7xx_hal_rcc.c ****     if(__HAL_FLASH_GET_LATENCY() != FLatency)
1107:Drivers/STM32H7xx_HAL_Driver/Src/stm32h7xx_hal_rcc.c ****     {
ARM GAS  C:\Users\cinar\AppData\Local\Temp\ccnsnn81.s 			page 53


1108:Drivers/STM32H7xx_HAL_Driver/Src/stm32h7xx_hal_rcc.c ****       return HAL_ERROR;
1109:Drivers/STM32H7xx_HAL_Driver/Src/stm32h7xx_hal_rcc.c ****     }
1110:Drivers/STM32H7xx_HAL_Driver/Src/stm32h7xx_hal_rcc.c ****  }
1111:Drivers/STM32H7xx_HAL_Driver/Src/stm32h7xx_hal_rcc.c **** 
1112:Drivers/STM32H7xx_HAL_Driver/Src/stm32h7xx_hal_rcc.c ****   /*-------------------------- D1PCLK1/CDPCLK Configuration ---------------------------*/
1113:Drivers/STM32H7xx_HAL_Driver/Src/stm32h7xx_hal_rcc.c ****  if(((RCC_ClkInitStruct->ClockType) & RCC_CLOCKTYPE_D1PCLK1) == RCC_CLOCKTYPE_D1PCLK1)
1114:Drivers/STM32H7xx_HAL_Driver/Src/stm32h7xx_hal_rcc.c ****  {
1115:Drivers/STM32H7xx_HAL_Driver/Src/stm32h7xx_hal_rcc.c **** #if defined(RCC_D1CFGR_D1PPRE)
1116:Drivers/STM32H7xx_HAL_Driver/Src/stm32h7xx_hal_rcc.c ****    if((RCC_ClkInitStruct->APB3CLKDivider) < (RCC->D1CFGR & RCC_D1CFGR_D1PPRE))
1117:Drivers/STM32H7xx_HAL_Driver/Src/stm32h7xx_hal_rcc.c ****    {
1118:Drivers/STM32H7xx_HAL_Driver/Src/stm32h7xx_hal_rcc.c ****      assert_param(IS_RCC_D1PCLK1(RCC_ClkInitStruct->APB3CLKDivider));
1119:Drivers/STM32H7xx_HAL_Driver/Src/stm32h7xx_hal_rcc.c ****      MODIFY_REG(RCC->D1CFGR, RCC_D1CFGR_D1PPRE, RCC_ClkInitStruct->APB3CLKDivider);
1120:Drivers/STM32H7xx_HAL_Driver/Src/stm32h7xx_hal_rcc.c ****    }
1121:Drivers/STM32H7xx_HAL_Driver/Src/stm32h7xx_hal_rcc.c **** #else
1122:Drivers/STM32H7xx_HAL_Driver/Src/stm32h7xx_hal_rcc.c ****    if((RCC_ClkInitStruct->APB3CLKDivider) < (RCC->CDCFGR1 & RCC_CDCFGR1_CDPPRE))
1123:Drivers/STM32H7xx_HAL_Driver/Src/stm32h7xx_hal_rcc.c ****    {
1124:Drivers/STM32H7xx_HAL_Driver/Src/stm32h7xx_hal_rcc.c ****      assert_param(IS_RCC_CDPCLK1(RCC_ClkInitStruct->APB3CLKDivider));
1125:Drivers/STM32H7xx_HAL_Driver/Src/stm32h7xx_hal_rcc.c ****      MODIFY_REG(RCC->CDCFGR1, RCC_CDCFGR1_CDPPRE, RCC_ClkInitStruct->APB3CLKDivider);
1126:Drivers/STM32H7xx_HAL_Driver/Src/stm32h7xx_hal_rcc.c ****    }
1127:Drivers/STM32H7xx_HAL_Driver/Src/stm32h7xx_hal_rcc.c **** #endif
1128:Drivers/STM32H7xx_HAL_Driver/Src/stm32h7xx_hal_rcc.c ****  }
1129:Drivers/STM32H7xx_HAL_Driver/Src/stm32h7xx_hal_rcc.c **** 
1130:Drivers/STM32H7xx_HAL_Driver/Src/stm32h7xx_hal_rcc.c ****   /*-------------------------- PCLK1 Configuration ---------------------------*/
1131:Drivers/STM32H7xx_HAL_Driver/Src/stm32h7xx_hal_rcc.c ****  if(((RCC_ClkInitStruct->ClockType) & RCC_CLOCKTYPE_PCLK1) == RCC_CLOCKTYPE_PCLK1)
1132:Drivers/STM32H7xx_HAL_Driver/Src/stm32h7xx_hal_rcc.c ****  {
1133:Drivers/STM32H7xx_HAL_Driver/Src/stm32h7xx_hal_rcc.c **** #if defined(RCC_D2CFGR_D2PPRE1)
1134:Drivers/STM32H7xx_HAL_Driver/Src/stm32h7xx_hal_rcc.c ****    if((RCC_ClkInitStruct->APB1CLKDivider) < (RCC->D2CFGR & RCC_D2CFGR_D2PPRE1))
1135:Drivers/STM32H7xx_HAL_Driver/Src/stm32h7xx_hal_rcc.c ****    {
1136:Drivers/STM32H7xx_HAL_Driver/Src/stm32h7xx_hal_rcc.c ****      assert_param(IS_RCC_PCLK1(RCC_ClkInitStruct->APB1CLKDivider));
1137:Drivers/STM32H7xx_HAL_Driver/Src/stm32h7xx_hal_rcc.c ****      MODIFY_REG(RCC->D2CFGR, RCC_D2CFGR_D2PPRE1, (RCC_ClkInitStruct->APB1CLKDivider));
1138:Drivers/STM32H7xx_HAL_Driver/Src/stm32h7xx_hal_rcc.c ****    }
1139:Drivers/STM32H7xx_HAL_Driver/Src/stm32h7xx_hal_rcc.c **** #else
1140:Drivers/STM32H7xx_HAL_Driver/Src/stm32h7xx_hal_rcc.c ****    if((RCC_ClkInitStruct->APB1CLKDivider) < (RCC->CDCFGR2 & RCC_CDCFGR2_CDPPRE1))
1141:Drivers/STM32H7xx_HAL_Driver/Src/stm32h7xx_hal_rcc.c ****    {
1142:Drivers/STM32H7xx_HAL_Driver/Src/stm32h7xx_hal_rcc.c ****      assert_param(IS_RCC_PCLK1(RCC_ClkInitStruct->APB1CLKDivider));
1143:Drivers/STM32H7xx_HAL_Driver/Src/stm32h7xx_hal_rcc.c ****      MODIFY_REG(RCC->CDCFGR2, RCC_CDCFGR2_CDPPRE1, (RCC_ClkInitStruct->APB1CLKDivider));
1144:Drivers/STM32H7xx_HAL_Driver/Src/stm32h7xx_hal_rcc.c ****    }
1145:Drivers/STM32H7xx_HAL_Driver/Src/stm32h7xx_hal_rcc.c **** #endif
1146:Drivers/STM32H7xx_HAL_Driver/Src/stm32h7xx_hal_rcc.c ****  }
1147:Drivers/STM32H7xx_HAL_Driver/Src/stm32h7xx_hal_rcc.c **** 
1148:Drivers/STM32H7xx_HAL_Driver/Src/stm32h7xx_hal_rcc.c ****   /*-------------------------- PCLK2 Configuration ---------------------------*/
1149:Drivers/STM32H7xx_HAL_Driver/Src/stm32h7xx_hal_rcc.c ****  if(((RCC_ClkInitStruct->ClockType) & RCC_CLOCKTYPE_PCLK2) == RCC_CLOCKTYPE_PCLK2)
1150:Drivers/STM32H7xx_HAL_Driver/Src/stm32h7xx_hal_rcc.c ****  {
1151:Drivers/STM32H7xx_HAL_Driver/Src/stm32h7xx_hal_rcc.c **** #if defined (RCC_D2CFGR_D2PPRE2)
1152:Drivers/STM32H7xx_HAL_Driver/Src/stm32h7xx_hal_rcc.c ****    if((RCC_ClkInitStruct->APB2CLKDivider) < (RCC->D2CFGR & RCC_D2CFGR_D2PPRE2))
1153:Drivers/STM32H7xx_HAL_Driver/Src/stm32h7xx_hal_rcc.c ****    {
1154:Drivers/STM32H7xx_HAL_Driver/Src/stm32h7xx_hal_rcc.c ****      assert_param(IS_RCC_PCLK2(RCC_ClkInitStruct->APB2CLKDivider));
1155:Drivers/STM32H7xx_HAL_Driver/Src/stm32h7xx_hal_rcc.c ****      MODIFY_REG(RCC->D2CFGR, RCC_D2CFGR_D2PPRE2, (RCC_ClkInitStruct->APB2CLKDivider));
1156:Drivers/STM32H7xx_HAL_Driver/Src/stm32h7xx_hal_rcc.c ****    }
1157:Drivers/STM32H7xx_HAL_Driver/Src/stm32h7xx_hal_rcc.c **** #else
1158:Drivers/STM32H7xx_HAL_Driver/Src/stm32h7xx_hal_rcc.c ****    if((RCC_ClkInitStruct->APB2CLKDivider) < (RCC->CDCFGR2 & RCC_CDCFGR2_CDPPRE2))
1159:Drivers/STM32H7xx_HAL_Driver/Src/stm32h7xx_hal_rcc.c ****    {
1160:Drivers/STM32H7xx_HAL_Driver/Src/stm32h7xx_hal_rcc.c ****      assert_param(IS_RCC_PCLK2(RCC_ClkInitStruct->APB2CLKDivider));
1161:Drivers/STM32H7xx_HAL_Driver/Src/stm32h7xx_hal_rcc.c ****      MODIFY_REG(RCC->CDCFGR2, RCC_CDCFGR2_CDPPRE2, (RCC_ClkInitStruct->APB2CLKDivider));
1162:Drivers/STM32H7xx_HAL_Driver/Src/stm32h7xx_hal_rcc.c ****    }
1163:Drivers/STM32H7xx_HAL_Driver/Src/stm32h7xx_hal_rcc.c **** #endif
1164:Drivers/STM32H7xx_HAL_Driver/Src/stm32h7xx_hal_rcc.c ****  }
ARM GAS  C:\Users\cinar\AppData\Local\Temp\ccnsnn81.s 			page 54


1165:Drivers/STM32H7xx_HAL_Driver/Src/stm32h7xx_hal_rcc.c **** 
1166:Drivers/STM32H7xx_HAL_Driver/Src/stm32h7xx_hal_rcc.c ****   /*-------------------------- D3PCLK1/SRDPCLK1 Configuration ---------------------------*/
1167:Drivers/STM32H7xx_HAL_Driver/Src/stm32h7xx_hal_rcc.c ****  if(((RCC_ClkInitStruct->ClockType) & RCC_CLOCKTYPE_D3PCLK1) == RCC_CLOCKTYPE_D3PCLK1)
1168:Drivers/STM32H7xx_HAL_Driver/Src/stm32h7xx_hal_rcc.c ****  {
1169:Drivers/STM32H7xx_HAL_Driver/Src/stm32h7xx_hal_rcc.c **** #if defined(RCC_D3CFGR_D3PPRE)
1170:Drivers/STM32H7xx_HAL_Driver/Src/stm32h7xx_hal_rcc.c ****    if((RCC_ClkInitStruct->APB4CLKDivider) < (RCC->D3CFGR & RCC_D3CFGR_D3PPRE))
1171:Drivers/STM32H7xx_HAL_Driver/Src/stm32h7xx_hal_rcc.c ****    {
1172:Drivers/STM32H7xx_HAL_Driver/Src/stm32h7xx_hal_rcc.c ****      assert_param(IS_RCC_D3PCLK1(RCC_ClkInitStruct->APB4CLKDivider));
1173:Drivers/STM32H7xx_HAL_Driver/Src/stm32h7xx_hal_rcc.c ****      MODIFY_REG(RCC->D3CFGR, RCC_D3CFGR_D3PPRE, (RCC_ClkInitStruct->APB4CLKDivider) );
1174:Drivers/STM32H7xx_HAL_Driver/Src/stm32h7xx_hal_rcc.c ****    }
1175:Drivers/STM32H7xx_HAL_Driver/Src/stm32h7xx_hal_rcc.c **** #else
1176:Drivers/STM32H7xx_HAL_Driver/Src/stm32h7xx_hal_rcc.c ****    if((RCC_ClkInitStruct->APB4CLKDivider) < (RCC->SRDCFGR & RCC_SRDCFGR_SRDPPRE))
1177:Drivers/STM32H7xx_HAL_Driver/Src/stm32h7xx_hal_rcc.c ****    {
1178:Drivers/STM32H7xx_HAL_Driver/Src/stm32h7xx_hal_rcc.c ****      assert_param(IS_RCC_SRDPCLK1(RCC_ClkInitStruct->APB4CLKDivider));
1179:Drivers/STM32H7xx_HAL_Driver/Src/stm32h7xx_hal_rcc.c ****      MODIFY_REG(RCC->SRDCFGR, RCC_SRDCFGR_SRDPPRE, (RCC_ClkInitStruct->APB4CLKDivider) );
1180:Drivers/STM32H7xx_HAL_Driver/Src/stm32h7xx_hal_rcc.c ****    }
1181:Drivers/STM32H7xx_HAL_Driver/Src/stm32h7xx_hal_rcc.c **** #endif
1182:Drivers/STM32H7xx_HAL_Driver/Src/stm32h7xx_hal_rcc.c ****  }
1183:Drivers/STM32H7xx_HAL_Driver/Src/stm32h7xx_hal_rcc.c **** 
1184:Drivers/STM32H7xx_HAL_Driver/Src/stm32h7xx_hal_rcc.c ****   /* Update the SystemCoreClock global variable */
1185:Drivers/STM32H7xx_HAL_Driver/Src/stm32h7xx_hal_rcc.c **** #if defined(RCC_D1CFGR_D1CPRE)
1186:Drivers/STM32H7xx_HAL_Driver/Src/stm32h7xx_hal_rcc.c ****   common_system_clock = HAL_RCC_GetSysClockFreq() >> ((D1CorePrescTable[(RCC->D1CFGR & RCC_D1CFGR_D
1187:Drivers/STM32H7xx_HAL_Driver/Src/stm32h7xx_hal_rcc.c **** #else
1188:Drivers/STM32H7xx_HAL_Driver/Src/stm32h7xx_hal_rcc.c ****   common_system_clock = HAL_RCC_GetSysClockFreq() >> ((D1CorePrescTable[(RCC->CDCFGR1 & RCC_CDCFGR1
1189:Drivers/STM32H7xx_HAL_Driver/Src/stm32h7xx_hal_rcc.c **** #endif
1190:Drivers/STM32H7xx_HAL_Driver/Src/stm32h7xx_hal_rcc.c **** 
1191:Drivers/STM32H7xx_HAL_Driver/Src/stm32h7xx_hal_rcc.c **** #if defined(RCC_D1CFGR_HPRE)
1192:Drivers/STM32H7xx_HAL_Driver/Src/stm32h7xx_hal_rcc.c ****   SystemD2Clock = (common_system_clock >> ((D1CorePrescTable[(RCC->D1CFGR & RCC_D1CFGR_HPRE)>> RCC_
1193:Drivers/STM32H7xx_HAL_Driver/Src/stm32h7xx_hal_rcc.c **** #else
1194:Drivers/STM32H7xx_HAL_Driver/Src/stm32h7xx_hal_rcc.c ****   SystemD2Clock = (common_system_clock >> ((D1CorePrescTable[(RCC->CDCFGR1 & RCC_CDCFGR1_HPRE)>> RC
1195:Drivers/STM32H7xx_HAL_Driver/Src/stm32h7xx_hal_rcc.c **** #endif
1196:Drivers/STM32H7xx_HAL_Driver/Src/stm32h7xx_hal_rcc.c **** 
1197:Drivers/STM32H7xx_HAL_Driver/Src/stm32h7xx_hal_rcc.c **** #if defined(DUAL_CORE) && defined(CORE_CM4)
1198:Drivers/STM32H7xx_HAL_Driver/Src/stm32h7xx_hal_rcc.c ****   SystemCoreClock = SystemD2Clock;
1199:Drivers/STM32H7xx_HAL_Driver/Src/stm32h7xx_hal_rcc.c **** #else
1200:Drivers/STM32H7xx_HAL_Driver/Src/stm32h7xx_hal_rcc.c ****   SystemCoreClock = common_system_clock;
1201:Drivers/STM32H7xx_HAL_Driver/Src/stm32h7xx_hal_rcc.c **** #endif /* DUAL_CORE && CORE_CM4 */
1202:Drivers/STM32H7xx_HAL_Driver/Src/stm32h7xx_hal_rcc.c **** 
1203:Drivers/STM32H7xx_HAL_Driver/Src/stm32h7xx_hal_rcc.c ****   /* Configure the source of time base considering new system clocks settings*/
1204:Drivers/STM32H7xx_HAL_Driver/Src/stm32h7xx_hal_rcc.c ****   halstatus = HAL_InitTick (uwTickPrio);
1205:Drivers/STM32H7xx_HAL_Driver/Src/stm32h7xx_hal_rcc.c **** 
1206:Drivers/STM32H7xx_HAL_Driver/Src/stm32h7xx_hal_rcc.c ****   return halstatus;
1207:Drivers/STM32H7xx_HAL_Driver/Src/stm32h7xx_hal_rcc.c **** }
1208:Drivers/STM32H7xx_HAL_Driver/Src/stm32h7xx_hal_rcc.c **** 
1209:Drivers/STM32H7xx_HAL_Driver/Src/stm32h7xx_hal_rcc.c **** /**
1210:Drivers/STM32H7xx_HAL_Driver/Src/stm32h7xx_hal_rcc.c ****   * @}
1211:Drivers/STM32H7xx_HAL_Driver/Src/stm32h7xx_hal_rcc.c ****   */
1212:Drivers/STM32H7xx_HAL_Driver/Src/stm32h7xx_hal_rcc.c **** 
1213:Drivers/STM32H7xx_HAL_Driver/Src/stm32h7xx_hal_rcc.c **** /** @defgroup RCC_Group2 Peripheral Control functions
1214:Drivers/STM32H7xx_HAL_Driver/Src/stm32h7xx_hal_rcc.c ****  *  @brief   RCC clocks control functions
1215:Drivers/STM32H7xx_HAL_Driver/Src/stm32h7xx_hal_rcc.c ****  *
1216:Drivers/STM32H7xx_HAL_Driver/Src/stm32h7xx_hal_rcc.c **** @verbatim
1217:Drivers/STM32H7xx_HAL_Driver/Src/stm32h7xx_hal_rcc.c ****  ===============================================================================
1218:Drivers/STM32H7xx_HAL_Driver/Src/stm32h7xx_hal_rcc.c ****                       ##### Peripheral Control functions #####
1219:Drivers/STM32H7xx_HAL_Driver/Src/stm32h7xx_hal_rcc.c ****  ===============================================================================
1220:Drivers/STM32H7xx_HAL_Driver/Src/stm32h7xx_hal_rcc.c ****     [..]
1221:Drivers/STM32H7xx_HAL_Driver/Src/stm32h7xx_hal_rcc.c ****     This subsection provides a set of functions allowing to control the RCC Clocks
ARM GAS  C:\Users\cinar\AppData\Local\Temp\ccnsnn81.s 			page 55


1222:Drivers/STM32H7xx_HAL_Driver/Src/stm32h7xx_hal_rcc.c ****     frequencies.
1223:Drivers/STM32H7xx_HAL_Driver/Src/stm32h7xx_hal_rcc.c **** 
1224:Drivers/STM32H7xx_HAL_Driver/Src/stm32h7xx_hal_rcc.c **** @endverbatim
1225:Drivers/STM32H7xx_HAL_Driver/Src/stm32h7xx_hal_rcc.c ****   * @{
1226:Drivers/STM32H7xx_HAL_Driver/Src/stm32h7xx_hal_rcc.c ****   */
1227:Drivers/STM32H7xx_HAL_Driver/Src/stm32h7xx_hal_rcc.c **** 
1228:Drivers/STM32H7xx_HAL_Driver/Src/stm32h7xx_hal_rcc.c **** /**
1229:Drivers/STM32H7xx_HAL_Driver/Src/stm32h7xx_hal_rcc.c ****   * @brief  Selects the clock source to output on MCO1 pin(PA8) or on MCO2 pin(PC9).
1230:Drivers/STM32H7xx_HAL_Driver/Src/stm32h7xx_hal_rcc.c ****   * @note   PA8/PC9 should be configured in alternate function mode.
1231:Drivers/STM32H7xx_HAL_Driver/Src/stm32h7xx_hal_rcc.c ****   * @param  RCC_MCOx: specifies the output direction for the clock source.
1232:Drivers/STM32H7xx_HAL_Driver/Src/stm32h7xx_hal_rcc.c ****   *          This parameter can be one of the following values:
1233:Drivers/STM32H7xx_HAL_Driver/Src/stm32h7xx_hal_rcc.c ****   *            @arg RCC_MCO1: Clock source to output on MCO1 pin(PA8).
1234:Drivers/STM32H7xx_HAL_Driver/Src/stm32h7xx_hal_rcc.c ****   *            @arg RCC_MCO2: Clock source to output on MCO2 pin(PC9).
1235:Drivers/STM32H7xx_HAL_Driver/Src/stm32h7xx_hal_rcc.c ****   * @param  RCC_MCOSource: specifies the clock source to output.
1236:Drivers/STM32H7xx_HAL_Driver/Src/stm32h7xx_hal_rcc.c ****   *          This parameter can be one of the following values:
1237:Drivers/STM32H7xx_HAL_Driver/Src/stm32h7xx_hal_rcc.c ****   *            @arg RCC_MCO1SOURCE_HSI: HSI clock selected as MCO1 source
1238:Drivers/STM32H7xx_HAL_Driver/Src/stm32h7xx_hal_rcc.c ****   *            @arg RCC_MCO1SOURCE_LSE: LSE clock selected as MCO1 source
1239:Drivers/STM32H7xx_HAL_Driver/Src/stm32h7xx_hal_rcc.c ****   *            @arg RCC_MCO1SOURCE_HSE: HSE clock selected as MCO1 source
1240:Drivers/STM32H7xx_HAL_Driver/Src/stm32h7xx_hal_rcc.c ****   *            @arg RCC_MCO1SOURCE_PLL1QCLK:  PLL1Q clock selected as MCO1 source
1241:Drivers/STM32H7xx_HAL_Driver/Src/stm32h7xx_hal_rcc.c ****   *            @arg RCC_MCO1SOURCE_HSI48: HSI48 (48MHZ) selected as MCO1 source
1242:Drivers/STM32H7xx_HAL_Driver/Src/stm32h7xx_hal_rcc.c ****   *            @arg RCC_MCO2SOURCE_SYSCLK: System clock (SYSCLK) selected as MCO2 source
1243:Drivers/STM32H7xx_HAL_Driver/Src/stm32h7xx_hal_rcc.c ****   *            @arg RCC_MCO2SOURCE_PLL2PCLK: PLL2P clock selected as MCO2 source
1244:Drivers/STM32H7xx_HAL_Driver/Src/stm32h7xx_hal_rcc.c ****   *            @arg RCC_MCO2SOURCE_HSE: HSE clock selected as MCO2 source
1245:Drivers/STM32H7xx_HAL_Driver/Src/stm32h7xx_hal_rcc.c ****   *            @arg RCC_MCO2SOURCE_PLLCLK:  PLL1P clock selected as MCO2 source
1246:Drivers/STM32H7xx_HAL_Driver/Src/stm32h7xx_hal_rcc.c ****   *            @arg RCC_MCO2SOURCE_CSICLK:  CSI clock selected as MCO2 source
1247:Drivers/STM32H7xx_HAL_Driver/Src/stm32h7xx_hal_rcc.c ****   *            @arg RCC_MCO2SOURCE_LSICLK:  LSI clock selected as MCO2 source
1248:Drivers/STM32H7xx_HAL_Driver/Src/stm32h7xx_hal_rcc.c ****   * @param  RCC_MCODiv: specifies the MCOx pre-scaler.
1249:Drivers/STM32H7xx_HAL_Driver/Src/stm32h7xx_hal_rcc.c ****   *          This parameter can be one of the following values:
1250:Drivers/STM32H7xx_HAL_Driver/Src/stm32h7xx_hal_rcc.c ****   *            @arg RCC_MCODIV_1 up to RCC_MCODIV_15  : divider applied to MCOx clock
1251:Drivers/STM32H7xx_HAL_Driver/Src/stm32h7xx_hal_rcc.c ****   * @retval None
1252:Drivers/STM32H7xx_HAL_Driver/Src/stm32h7xx_hal_rcc.c ****   */
1253:Drivers/STM32H7xx_HAL_Driver/Src/stm32h7xx_hal_rcc.c **** void HAL_RCC_MCOConfig(uint32_t RCC_MCOx, uint32_t RCC_MCOSource, uint32_t RCC_MCODiv)
1254:Drivers/STM32H7xx_HAL_Driver/Src/stm32h7xx_hal_rcc.c **** {
 1617              		.loc 1 1254 1 is_stmt 1 view -0
 1618              		.cfi_startproc
 1619              		@ args = 0, pretend = 0, frame = 32
 1620              		@ frame_needed = 0, uses_anonymous_args = 0
 1621              		.loc 1 1254 1 is_stmt 0 view .LVU540
 1622 0000 70B5     		push	{r4, r5, r6, lr}
 1623              	.LCFI4:
 1624              		.cfi_def_cfa_offset 16
 1625              		.cfi_offset 4, -16
 1626              		.cfi_offset 5, -12
 1627              		.cfi_offset 6, -8
 1628              		.cfi_offset 14, -4
 1629 0002 88B0     		sub	sp, sp, #32
 1630              	.LCFI5:
 1631              		.cfi_def_cfa_offset 48
 1632 0004 0C46     		mov	r4, r1
 1633 0006 1546     		mov	r5, r2
1255:Drivers/STM32H7xx_HAL_Driver/Src/stm32h7xx_hal_rcc.c ****   GPIO_InitTypeDef GPIO_InitStruct;
 1634              		.loc 1 1255 3 is_stmt 1 view .LVU541
1256:Drivers/STM32H7xx_HAL_Driver/Src/stm32h7xx_hal_rcc.c ****   /* Check the parameters */
1257:Drivers/STM32H7xx_HAL_Driver/Src/stm32h7xx_hal_rcc.c ****   assert_param(IS_RCC_MCO(RCC_MCOx));
 1635              		.loc 1 1257 3 view .LVU542
1258:Drivers/STM32H7xx_HAL_Driver/Src/stm32h7xx_hal_rcc.c ****   assert_param(IS_RCC_MCODIV(RCC_MCODiv));
 1636              		.loc 1 1258 3 view .LVU543
ARM GAS  C:\Users\cinar\AppData\Local\Temp\ccnsnn81.s 			page 56


1259:Drivers/STM32H7xx_HAL_Driver/Src/stm32h7xx_hal_rcc.c ****   /* RCC_MCO1 */
1260:Drivers/STM32H7xx_HAL_Driver/Src/stm32h7xx_hal_rcc.c ****   if(RCC_MCOx == RCC_MCO1)
 1637              		.loc 1 1260 3 view .LVU544
 1638              		.loc 1 1260 5 is_stmt 0 view .LVU545
 1639 0008 10BB     		cbnz	r0, .L152
1261:Drivers/STM32H7xx_HAL_Driver/Src/stm32h7xx_hal_rcc.c ****   {
1262:Drivers/STM32H7xx_HAL_Driver/Src/stm32h7xx_hal_rcc.c ****     assert_param(IS_RCC_MCO1SOURCE(RCC_MCOSource));
 1640              		.loc 1 1262 5 is_stmt 1 view .LVU546
1263:Drivers/STM32H7xx_HAL_Driver/Src/stm32h7xx_hal_rcc.c **** 
1264:Drivers/STM32H7xx_HAL_Driver/Src/stm32h7xx_hal_rcc.c ****     /* MCO1 Clock Enable */
1265:Drivers/STM32H7xx_HAL_Driver/Src/stm32h7xx_hal_rcc.c ****     MCO1_CLK_ENABLE();
 1641              		.loc 1 1265 5 view .LVU547
 1642              	.LBB13:
 1643              		.loc 1 1265 5 view .LVU548
 1644              		.loc 1 1265 5 view .LVU549
 1645 000a 234E     		ldr	r6, .L155
 1646 000c D6F8E030 		ldr	r3, [r6, #224]
 1647 0010 43F00103 		orr	r3, r3, #1
 1648 0014 C6F8E030 		str	r3, [r6, #224]
 1649              		.loc 1 1265 5 view .LVU550
 1650 0018 D6F8E030 		ldr	r3, [r6, #224]
 1651 001c 03F00103 		and	r3, r3, #1
 1652 0020 0193     		str	r3, [sp, #4]
 1653              		.loc 1 1265 5 view .LVU551
 1654 0022 019B     		ldr	r3, [sp, #4]
 1655              	.LBE13:
 1656              		.loc 1 1265 5 view .LVU552
1266:Drivers/STM32H7xx_HAL_Driver/Src/stm32h7xx_hal_rcc.c **** 
1267:Drivers/STM32H7xx_HAL_Driver/Src/stm32h7xx_hal_rcc.c ****     /* Configure the MCO1 pin in alternate function mode */
1268:Drivers/STM32H7xx_HAL_Driver/Src/stm32h7xx_hal_rcc.c ****     GPIO_InitStruct.Pin = MCO1_PIN;
 1657              		.loc 1 1268 5 view .LVU553
 1658              		.loc 1 1268 25 is_stmt 0 view .LVU554
 1659 0024 4FF48073 		mov	r3, #256
 1660 0028 0393     		str	r3, [sp, #12]
1269:Drivers/STM32H7xx_HAL_Driver/Src/stm32h7xx_hal_rcc.c ****     GPIO_InitStruct.Mode = GPIO_MODE_AF_PP;
 1661              		.loc 1 1269 5 is_stmt 1 view .LVU555
 1662              		.loc 1 1269 26 is_stmt 0 view .LVU556
 1663 002a 0223     		movs	r3, #2
 1664 002c 0493     		str	r3, [sp, #16]
1270:Drivers/STM32H7xx_HAL_Driver/Src/stm32h7xx_hal_rcc.c ****     GPIO_InitStruct.Speed = GPIO_SPEED_FREQ_VERY_HIGH;
 1665              		.loc 1 1270 5 is_stmt 1 view .LVU557
 1666              		.loc 1 1270 27 is_stmt 0 view .LVU558
 1667 002e 0323     		movs	r3, #3
 1668 0030 0693     		str	r3, [sp, #24]
1271:Drivers/STM32H7xx_HAL_Driver/Src/stm32h7xx_hal_rcc.c ****     GPIO_InitStruct.Pull = GPIO_NOPULL;
 1669              		.loc 1 1271 5 is_stmt 1 view .LVU559
 1670              		.loc 1 1271 26 is_stmt 0 view .LVU560
 1671 0032 0023     		movs	r3, #0
 1672 0034 0593     		str	r3, [sp, #20]
1272:Drivers/STM32H7xx_HAL_Driver/Src/stm32h7xx_hal_rcc.c ****     GPIO_InitStruct.Alternate = GPIO_AF0_MCO;
 1673              		.loc 1 1272 5 is_stmt 1 view .LVU561
 1674              		.loc 1 1272 31 is_stmt 0 view .LVU562
 1675 0036 0793     		str	r3, [sp, #28]
1273:Drivers/STM32H7xx_HAL_Driver/Src/stm32h7xx_hal_rcc.c ****     HAL_GPIO_Init(MCO1_GPIO_PORT, &GPIO_InitStruct);
 1676              		.loc 1 1273 5 is_stmt 1 view .LVU563
 1677 0038 03A9     		add	r1, sp, #12
 1678              	.LVL136:
ARM GAS  C:\Users\cinar\AppData\Local\Temp\ccnsnn81.s 			page 57


 1679              		.loc 1 1273 5 is_stmt 0 view .LVU564
 1680 003a 1848     		ldr	r0, .L155+4
 1681              	.LVL137:
 1682              		.loc 1 1273 5 view .LVU565
 1683 003c FFF7FEFF 		bl	HAL_GPIO_Init
 1684              	.LVL138:
1274:Drivers/STM32H7xx_HAL_Driver/Src/stm32h7xx_hal_rcc.c **** 
1275:Drivers/STM32H7xx_HAL_Driver/Src/stm32h7xx_hal_rcc.c ****     /* Mask MCO1 and MCO1PRE[3:0] bits then Select MCO1 clock source and pre-scaler */
1276:Drivers/STM32H7xx_HAL_Driver/Src/stm32h7xx_hal_rcc.c ****     MODIFY_REG(RCC->CFGR, (RCC_CFGR_MCO1 | RCC_CFGR_MCO1PRE), (RCC_MCOSource | RCC_MCODiv));
 1685              		.loc 1 1276 5 is_stmt 1 view .LVU566
 1686 0040 3369     		ldr	r3, [r6, #16]
 1687 0042 23F0FE73 		bic	r3, r3, #33292288
 1688 0046 2543     		orrs	r5, r5, r4
 1689              	.LVL139:
 1690              		.loc 1 1276 5 is_stmt 0 view .LVU567
 1691 0048 1D43     		orrs	r5, r5, r3
 1692 004a 3561     		str	r5, [r6, #16]
 1693              	.LVL140:
 1694              	.L151:
1277:Drivers/STM32H7xx_HAL_Driver/Src/stm32h7xx_hal_rcc.c ****   }
1278:Drivers/STM32H7xx_HAL_Driver/Src/stm32h7xx_hal_rcc.c ****   else
1279:Drivers/STM32H7xx_HAL_Driver/Src/stm32h7xx_hal_rcc.c ****   {
1280:Drivers/STM32H7xx_HAL_Driver/Src/stm32h7xx_hal_rcc.c ****     assert_param(IS_RCC_MCO2SOURCE(RCC_MCOSource));
1281:Drivers/STM32H7xx_HAL_Driver/Src/stm32h7xx_hal_rcc.c **** 
1282:Drivers/STM32H7xx_HAL_Driver/Src/stm32h7xx_hal_rcc.c ****     /* MCO2 Clock Enable */
1283:Drivers/STM32H7xx_HAL_Driver/Src/stm32h7xx_hal_rcc.c ****     MCO2_CLK_ENABLE();
1284:Drivers/STM32H7xx_HAL_Driver/Src/stm32h7xx_hal_rcc.c **** 
1285:Drivers/STM32H7xx_HAL_Driver/Src/stm32h7xx_hal_rcc.c ****     /* Configure the MCO2 pin in alternate function mode */
1286:Drivers/STM32H7xx_HAL_Driver/Src/stm32h7xx_hal_rcc.c ****     GPIO_InitStruct.Pin = MCO2_PIN;
1287:Drivers/STM32H7xx_HAL_Driver/Src/stm32h7xx_hal_rcc.c ****     GPIO_InitStruct.Mode = GPIO_MODE_AF_PP;
1288:Drivers/STM32H7xx_HAL_Driver/Src/stm32h7xx_hal_rcc.c ****     GPIO_InitStruct.Speed = GPIO_SPEED_FREQ_VERY_HIGH;
1289:Drivers/STM32H7xx_HAL_Driver/Src/stm32h7xx_hal_rcc.c ****     GPIO_InitStruct.Pull = GPIO_NOPULL;
1290:Drivers/STM32H7xx_HAL_Driver/Src/stm32h7xx_hal_rcc.c ****     GPIO_InitStruct.Alternate = GPIO_AF0_MCO;
1291:Drivers/STM32H7xx_HAL_Driver/Src/stm32h7xx_hal_rcc.c ****     HAL_GPIO_Init(MCO2_GPIO_PORT, &GPIO_InitStruct);
1292:Drivers/STM32H7xx_HAL_Driver/Src/stm32h7xx_hal_rcc.c **** 
1293:Drivers/STM32H7xx_HAL_Driver/Src/stm32h7xx_hal_rcc.c ****     /* Mask MCO2 and MCO2PRE[3:0] bits then Select MCO2 clock source and pre-scaler */
1294:Drivers/STM32H7xx_HAL_Driver/Src/stm32h7xx_hal_rcc.c ****     MODIFY_REG(RCC->CFGR, (RCC_CFGR_MCO2 | RCC_CFGR_MCO2PRE), (RCC_MCOSource | (RCC_MCODiv << 7U)))
1295:Drivers/STM32H7xx_HAL_Driver/Src/stm32h7xx_hal_rcc.c ****   }
1296:Drivers/STM32H7xx_HAL_Driver/Src/stm32h7xx_hal_rcc.c **** }
 1695              		.loc 1 1296 1 view .LVU568
 1696 004c 08B0     		add	sp, sp, #32
 1697              	.LCFI6:
 1698              		.cfi_remember_state
 1699              		.cfi_def_cfa_offset 16
 1700              		@ sp needed
 1701 004e 70BD     		pop	{r4, r5, r6, pc}
 1702              	.LVL141:
 1703              	.L152:
 1704              	.LCFI7:
 1705              		.cfi_restore_state
1280:Drivers/STM32H7xx_HAL_Driver/Src/stm32h7xx_hal_rcc.c **** 
 1706              		.loc 1 1280 5 is_stmt 1 view .LVU569
1283:Drivers/STM32H7xx_HAL_Driver/Src/stm32h7xx_hal_rcc.c **** 
 1707              		.loc 1 1283 5 view .LVU570
 1708              	.LBB14:
1283:Drivers/STM32H7xx_HAL_Driver/Src/stm32h7xx_hal_rcc.c **** 
 1709              		.loc 1 1283 5 view .LVU571
ARM GAS  C:\Users\cinar\AppData\Local\Temp\ccnsnn81.s 			page 58


1283:Drivers/STM32H7xx_HAL_Driver/Src/stm32h7xx_hal_rcc.c **** 
 1710              		.loc 1 1283 5 view .LVU572
 1711 0050 114E     		ldr	r6, .L155
 1712 0052 D6F8E030 		ldr	r3, [r6, #224]
 1713 0056 43F00403 		orr	r3, r3, #4
 1714 005a C6F8E030 		str	r3, [r6, #224]
1283:Drivers/STM32H7xx_HAL_Driver/Src/stm32h7xx_hal_rcc.c **** 
 1715              		.loc 1 1283 5 view .LVU573
 1716 005e D6F8E030 		ldr	r3, [r6, #224]
 1717 0062 03F00403 		and	r3, r3, #4
 1718 0066 0293     		str	r3, [sp, #8]
1283:Drivers/STM32H7xx_HAL_Driver/Src/stm32h7xx_hal_rcc.c **** 
 1719              		.loc 1 1283 5 view .LVU574
 1720 0068 029B     		ldr	r3, [sp, #8]
 1721              	.LBE14:
1283:Drivers/STM32H7xx_HAL_Driver/Src/stm32h7xx_hal_rcc.c **** 
 1722              		.loc 1 1283 5 view .LVU575
1286:Drivers/STM32H7xx_HAL_Driver/Src/stm32h7xx_hal_rcc.c ****     GPIO_InitStruct.Mode = GPIO_MODE_AF_PP;
 1723              		.loc 1 1286 5 view .LVU576
1286:Drivers/STM32H7xx_HAL_Driver/Src/stm32h7xx_hal_rcc.c ****     GPIO_InitStruct.Mode = GPIO_MODE_AF_PP;
 1724              		.loc 1 1286 25 is_stmt 0 view .LVU577
 1725 006a 4FF40073 		mov	r3, #512
 1726 006e 0393     		str	r3, [sp, #12]
1287:Drivers/STM32H7xx_HAL_Driver/Src/stm32h7xx_hal_rcc.c ****     GPIO_InitStruct.Speed = GPIO_SPEED_FREQ_VERY_HIGH;
 1727              		.loc 1 1287 5 is_stmt 1 view .LVU578
1287:Drivers/STM32H7xx_HAL_Driver/Src/stm32h7xx_hal_rcc.c ****     GPIO_InitStruct.Speed = GPIO_SPEED_FREQ_VERY_HIGH;
 1728              		.loc 1 1287 26 is_stmt 0 view .LVU579
 1729 0070 0223     		movs	r3, #2
 1730 0072 0493     		str	r3, [sp, #16]
1288:Drivers/STM32H7xx_HAL_Driver/Src/stm32h7xx_hal_rcc.c ****     GPIO_InitStruct.Pull = GPIO_NOPULL;
 1731              		.loc 1 1288 5 is_stmt 1 view .LVU580
1288:Drivers/STM32H7xx_HAL_Driver/Src/stm32h7xx_hal_rcc.c ****     GPIO_InitStruct.Pull = GPIO_NOPULL;
 1732              		.loc 1 1288 27 is_stmt 0 view .LVU581
 1733 0074 0323     		movs	r3, #3
 1734 0076 0693     		str	r3, [sp, #24]
1289:Drivers/STM32H7xx_HAL_Driver/Src/stm32h7xx_hal_rcc.c ****     GPIO_InitStruct.Alternate = GPIO_AF0_MCO;
 1735              		.loc 1 1289 5 is_stmt 1 view .LVU582
1289:Drivers/STM32H7xx_HAL_Driver/Src/stm32h7xx_hal_rcc.c ****     GPIO_InitStruct.Alternate = GPIO_AF0_MCO;
 1736              		.loc 1 1289 26 is_stmt 0 view .LVU583
 1737 0078 0023     		movs	r3, #0
 1738 007a 0593     		str	r3, [sp, #20]
1290:Drivers/STM32H7xx_HAL_Driver/Src/stm32h7xx_hal_rcc.c ****     HAL_GPIO_Init(MCO2_GPIO_PORT, &GPIO_InitStruct);
 1739              		.loc 1 1290 5 is_stmt 1 view .LVU584
1290:Drivers/STM32H7xx_HAL_Driver/Src/stm32h7xx_hal_rcc.c ****     HAL_GPIO_Init(MCO2_GPIO_PORT, &GPIO_InitStruct);
 1740              		.loc 1 1290 31 is_stmt 0 view .LVU585
 1741 007c 0793     		str	r3, [sp, #28]
1291:Drivers/STM32H7xx_HAL_Driver/Src/stm32h7xx_hal_rcc.c **** 
 1742              		.loc 1 1291 5 is_stmt 1 view .LVU586
 1743 007e 03A9     		add	r1, sp, #12
 1744              	.LVL142:
1291:Drivers/STM32H7xx_HAL_Driver/Src/stm32h7xx_hal_rcc.c **** 
 1745              		.loc 1 1291 5 is_stmt 0 view .LVU587
 1746 0080 0748     		ldr	r0, .L155+8
 1747              	.LVL143:
1291:Drivers/STM32H7xx_HAL_Driver/Src/stm32h7xx_hal_rcc.c **** 
 1748              		.loc 1 1291 5 view .LVU588
 1749 0082 FFF7FEFF 		bl	HAL_GPIO_Init
ARM GAS  C:\Users\cinar\AppData\Local\Temp\ccnsnn81.s 			page 59


 1750              	.LVL144:
1294:Drivers/STM32H7xx_HAL_Driver/Src/stm32h7xx_hal_rcc.c ****   }
 1751              		.loc 1 1294 5 is_stmt 1 view .LVU589
 1752 0086 3369     		ldr	r3, [r6, #16]
 1753 0088 23F07E43 		bic	r3, r3, #-33554432
 1754 008c 44EAC514 		orr	r4, r4, r5, lsl #7
 1755              	.LVL145:
1294:Drivers/STM32H7xx_HAL_Driver/Src/stm32h7xx_hal_rcc.c ****   }
 1756              		.loc 1 1294 5 is_stmt 0 view .LVU590
 1757 0090 1C43     		orrs	r4, r4, r3
 1758 0092 3461     		str	r4, [r6, #16]
 1759              		.loc 1 1296 1 view .LVU591
 1760 0094 DAE7     		b	.L151
 1761              	.L156:
 1762 0096 00BF     		.align	2
 1763              	.L155:
 1764 0098 00440258 		.word	1476543488
 1765 009c 00000258 		.word	1476526080
 1766 00a0 00080258 		.word	1476528128
 1767              		.cfi_endproc
 1768              	.LFE147:
 1770              		.section	.text.HAL_RCC_EnableCSS,"ax",%progbits
 1771              		.align	1
 1772              		.global	HAL_RCC_EnableCSS
 1773              		.syntax unified
 1774              		.thumb
 1775              		.thumb_func
 1776              		.fpu fpv5-d16
 1778              	HAL_RCC_EnableCSS:
 1779              	.LFB148:
1297:Drivers/STM32H7xx_HAL_Driver/Src/stm32h7xx_hal_rcc.c **** 
1298:Drivers/STM32H7xx_HAL_Driver/Src/stm32h7xx_hal_rcc.c **** /**
1299:Drivers/STM32H7xx_HAL_Driver/Src/stm32h7xx_hal_rcc.c ****   * @brief  Enables the Clock Security System.
1300:Drivers/STM32H7xx_HAL_Driver/Src/stm32h7xx_hal_rcc.c ****   * @note   If a failure is detected on the HSE oscillator clock, this oscillator
1301:Drivers/STM32H7xx_HAL_Driver/Src/stm32h7xx_hal_rcc.c ****   *         is automatically disabled and an interrupt is generated to inform the
1302:Drivers/STM32H7xx_HAL_Driver/Src/stm32h7xx_hal_rcc.c ****   *         software about the failure (Clock Security System Interrupt, CSSI),
1303:Drivers/STM32H7xx_HAL_Driver/Src/stm32h7xx_hal_rcc.c ****   *         allowing the MCU to perform rescue operations. The CSSI is linked to
1304:Drivers/STM32H7xx_HAL_Driver/Src/stm32h7xx_hal_rcc.c ****   *         the Cortex-M NMI (Non-Mask-able Interrupt) exception vector.
1305:Drivers/STM32H7xx_HAL_Driver/Src/stm32h7xx_hal_rcc.c ****   * @retval None
1306:Drivers/STM32H7xx_HAL_Driver/Src/stm32h7xx_hal_rcc.c ****   */
1307:Drivers/STM32H7xx_HAL_Driver/Src/stm32h7xx_hal_rcc.c **** void HAL_RCC_EnableCSS(void)
1308:Drivers/STM32H7xx_HAL_Driver/Src/stm32h7xx_hal_rcc.c **** {
 1780              		.loc 1 1308 1 is_stmt 1 view -0
 1781              		.cfi_startproc
 1782              		@ args = 0, pretend = 0, frame = 0
 1783              		@ frame_needed = 0, uses_anonymous_args = 0
 1784              		@ link register save eliminated.
1309:Drivers/STM32H7xx_HAL_Driver/Src/stm32h7xx_hal_rcc.c ****   SET_BIT(RCC->CR, RCC_CR_CSSHSEON) ;
 1785              		.loc 1 1309 3 view .LVU593
 1786 0000 024A     		ldr	r2, .L158
 1787 0002 1368     		ldr	r3, [r2]
 1788 0004 43F40023 		orr	r3, r3, #524288
 1789 0008 1360     		str	r3, [r2]
1310:Drivers/STM32H7xx_HAL_Driver/Src/stm32h7xx_hal_rcc.c **** }
 1790              		.loc 1 1310 1 is_stmt 0 view .LVU594
 1791 000a 7047     		bx	lr
 1792              	.L159:
ARM GAS  C:\Users\cinar\AppData\Local\Temp\ccnsnn81.s 			page 60


 1793              		.align	2
 1794              	.L158:
 1795 000c 00440258 		.word	1476543488
 1796              		.cfi_endproc
 1797              	.LFE148:
 1799              		.section	.text.HAL_RCC_DisableCSS,"ax",%progbits
 1800              		.align	1
 1801              		.global	HAL_RCC_DisableCSS
 1802              		.syntax unified
 1803              		.thumb
 1804              		.thumb_func
 1805              		.fpu fpv5-d16
 1807              	HAL_RCC_DisableCSS:
 1808              	.LFB149:
1311:Drivers/STM32H7xx_HAL_Driver/Src/stm32h7xx_hal_rcc.c **** 
1312:Drivers/STM32H7xx_HAL_Driver/Src/stm32h7xx_hal_rcc.c **** /**
1313:Drivers/STM32H7xx_HAL_Driver/Src/stm32h7xx_hal_rcc.c ****   * @brief  Disables the Clock Security System.
1314:Drivers/STM32H7xx_HAL_Driver/Src/stm32h7xx_hal_rcc.c ****   * @retval None
1315:Drivers/STM32H7xx_HAL_Driver/Src/stm32h7xx_hal_rcc.c ****   */
1316:Drivers/STM32H7xx_HAL_Driver/Src/stm32h7xx_hal_rcc.c **** void HAL_RCC_DisableCSS(void)
1317:Drivers/STM32H7xx_HAL_Driver/Src/stm32h7xx_hal_rcc.c **** {
 1809              		.loc 1 1317 1 is_stmt 1 view -0
 1810              		.cfi_startproc
 1811              		@ args = 0, pretend = 0, frame = 0
 1812              		@ frame_needed = 0, uses_anonymous_args = 0
 1813              		@ link register save eliminated.
1318:Drivers/STM32H7xx_HAL_Driver/Src/stm32h7xx_hal_rcc.c ****   CLEAR_BIT(RCC->CR, RCC_CR_CSSHSEON);
 1814              		.loc 1 1318 3 view .LVU596
 1815 0000 024A     		ldr	r2, .L161
 1816 0002 1368     		ldr	r3, [r2]
 1817 0004 23F40023 		bic	r3, r3, #524288
 1818 0008 1360     		str	r3, [r2]
1319:Drivers/STM32H7xx_HAL_Driver/Src/stm32h7xx_hal_rcc.c **** }
 1819              		.loc 1 1319 1 is_stmt 0 view .LVU597
 1820 000a 7047     		bx	lr
 1821              	.L162:
 1822              		.align	2
 1823              	.L161:
 1824 000c 00440258 		.word	1476543488
 1825              		.cfi_endproc
 1826              	.LFE149:
 1828              		.section	.text.HAL_RCC_GetSysClockFreq,"ax",%progbits
 1829              		.align	1
 1830              		.global	HAL_RCC_GetSysClockFreq
 1831              		.syntax unified
 1832              		.thumb
 1833              		.thumb_func
 1834              		.fpu fpv5-d16
 1836              	HAL_RCC_GetSysClockFreq:
 1837              	.LFB150:
1320:Drivers/STM32H7xx_HAL_Driver/Src/stm32h7xx_hal_rcc.c **** 
1321:Drivers/STM32H7xx_HAL_Driver/Src/stm32h7xx_hal_rcc.c **** /**
1322:Drivers/STM32H7xx_HAL_Driver/Src/stm32h7xx_hal_rcc.c ****   * @brief  Returns the SYSCLK frequency
1323:Drivers/STM32H7xx_HAL_Driver/Src/stm32h7xx_hal_rcc.c ****   *
1324:Drivers/STM32H7xx_HAL_Driver/Src/stm32h7xx_hal_rcc.c ****   * @note   The system frequency computed by this function is not the real
1325:Drivers/STM32H7xx_HAL_Driver/Src/stm32h7xx_hal_rcc.c ****   *         frequency in the chip. It is calculated based on the predefined
1326:Drivers/STM32H7xx_HAL_Driver/Src/stm32h7xx_hal_rcc.c ****   *         constant and the selected clock source:
ARM GAS  C:\Users\cinar\AppData\Local\Temp\ccnsnn81.s 			page 61


1327:Drivers/STM32H7xx_HAL_Driver/Src/stm32h7xx_hal_rcc.c ****   * @note     If SYSCLK source is CSI, function returns values based on CSI_VALUE(*)
1328:Drivers/STM32H7xx_HAL_Driver/Src/stm32h7xx_hal_rcc.c ****   * @note     If SYSCLK source is HSI, function returns values based on HSI_VALUE(**)
1329:Drivers/STM32H7xx_HAL_Driver/Src/stm32h7xx_hal_rcc.c ****   * @note     If SYSCLK source is HSE, function returns values based on HSE_VALUE(***)
1330:Drivers/STM32H7xx_HAL_Driver/Src/stm32h7xx_hal_rcc.c ****   * @note     If SYSCLK source is PLL, function returns values based on CSI_VALUE(*),
1331:Drivers/STM32H7xx_HAL_Driver/Src/stm32h7xx_hal_rcc.c ****   *           HSI_VALUE(**) or HSE_VALUE(***) multiplied/divided by the PLL factors.
1332:Drivers/STM32H7xx_HAL_Driver/Src/stm32h7xx_hal_rcc.c ****   * @note     (*) CSI_VALUE is a constant defined in stm32h7xx_hal_conf.h file (default value
1333:Drivers/STM32H7xx_HAL_Driver/Src/stm32h7xx_hal_rcc.c ****   *               4 MHz) but the real value may vary depending on the variations
1334:Drivers/STM32H7xx_HAL_Driver/Src/stm32h7xx_hal_rcc.c ****   *               in voltage and temperature.
1335:Drivers/STM32H7xx_HAL_Driver/Src/stm32h7xx_hal_rcc.c ****   * @note     (**) HSI_VALUE is a constant defined in stm32h7xx_hal_conf.h file (default value
1336:Drivers/STM32H7xx_HAL_Driver/Src/stm32h7xx_hal_rcc.c ****   *               64 MHz) but the real value may vary depending on the variations
1337:Drivers/STM32H7xx_HAL_Driver/Src/stm32h7xx_hal_rcc.c ****   *               in voltage and temperature.
1338:Drivers/STM32H7xx_HAL_Driver/Src/stm32h7xx_hal_rcc.c ****   * @note     (***) HSE_VALUE is a constant defined in stm32h7xx_hal_conf.h file (default value
1339:Drivers/STM32H7xx_HAL_Driver/Src/stm32h7xx_hal_rcc.c ****   *                25 MHz), user has to ensure that HSE_VALUE is same as the real
1340:Drivers/STM32H7xx_HAL_Driver/Src/stm32h7xx_hal_rcc.c ****   *                frequency of the crystal used. Otherwise, this function may
1341:Drivers/STM32H7xx_HAL_Driver/Src/stm32h7xx_hal_rcc.c ****   *                have wrong result.
1342:Drivers/STM32H7xx_HAL_Driver/Src/stm32h7xx_hal_rcc.c ****   *
1343:Drivers/STM32H7xx_HAL_Driver/Src/stm32h7xx_hal_rcc.c ****   * @note   The result of this function could be not correct when using fractional
1344:Drivers/STM32H7xx_HAL_Driver/Src/stm32h7xx_hal_rcc.c ****   *         value for HSE crystal.
1345:Drivers/STM32H7xx_HAL_Driver/Src/stm32h7xx_hal_rcc.c ****   *
1346:Drivers/STM32H7xx_HAL_Driver/Src/stm32h7xx_hal_rcc.c ****   * @note   This function can be used by the user application to compute the
1347:Drivers/STM32H7xx_HAL_Driver/Src/stm32h7xx_hal_rcc.c ****   *         baud rate for the communication peripherals or configure other parameters.
1348:Drivers/STM32H7xx_HAL_Driver/Src/stm32h7xx_hal_rcc.c ****   *
1349:Drivers/STM32H7xx_HAL_Driver/Src/stm32h7xx_hal_rcc.c ****   * @note   Each time SYSCLK changes, this function must be called to update the
1350:Drivers/STM32H7xx_HAL_Driver/Src/stm32h7xx_hal_rcc.c ****   *         right SYSCLK value. Otherwise, any configuration based on this function will be incorre
1351:Drivers/STM32H7xx_HAL_Driver/Src/stm32h7xx_hal_rcc.c ****   *
1352:Drivers/STM32H7xx_HAL_Driver/Src/stm32h7xx_hal_rcc.c ****   *
1353:Drivers/STM32H7xx_HAL_Driver/Src/stm32h7xx_hal_rcc.c ****   * @retval SYSCLK frequency
1354:Drivers/STM32H7xx_HAL_Driver/Src/stm32h7xx_hal_rcc.c ****   */
1355:Drivers/STM32H7xx_HAL_Driver/Src/stm32h7xx_hal_rcc.c **** uint32_t HAL_RCC_GetSysClockFreq(void)
1356:Drivers/STM32H7xx_HAL_Driver/Src/stm32h7xx_hal_rcc.c **** {
 1838              		.loc 1 1356 1 is_stmt 1 view -0
 1839              		.cfi_startproc
 1840              		@ args = 0, pretend = 0, frame = 0
 1841              		@ frame_needed = 0, uses_anonymous_args = 0
 1842              		@ link register save eliminated.
1357:Drivers/STM32H7xx_HAL_Driver/Src/stm32h7xx_hal_rcc.c ****   uint32_t pllp, pllsource, pllm, pllfracen, hsivalue;
 1843              		.loc 1 1357 3 view .LVU599
1358:Drivers/STM32H7xx_HAL_Driver/Src/stm32h7xx_hal_rcc.c ****   float_t fracn1, pllvco;
 1844              		.loc 1 1358 3 view .LVU600
1359:Drivers/STM32H7xx_HAL_Driver/Src/stm32h7xx_hal_rcc.c ****   uint32_t sysclockfreq;
 1845              		.loc 1 1359 3 view .LVU601
1360:Drivers/STM32H7xx_HAL_Driver/Src/stm32h7xx_hal_rcc.c **** 
1361:Drivers/STM32H7xx_HAL_Driver/Src/stm32h7xx_hal_rcc.c ****   /* Get SYSCLK source -------------------------------------------------------*/
1362:Drivers/STM32H7xx_HAL_Driver/Src/stm32h7xx_hal_rcc.c **** 
1363:Drivers/STM32H7xx_HAL_Driver/Src/stm32h7xx_hal_rcc.c ****   switch (RCC->CFGR & RCC_CFGR_SWS)
 1846              		.loc 1 1363 3 view .LVU602
 1847              		.loc 1 1363 14 is_stmt 0 view .LVU603
 1848 0000 744B     		ldr	r3, .L179
 1849 0002 1B69     		ldr	r3, [r3, #16]
 1850              		.loc 1 1363 21 view .LVU604
 1851 0004 03F03803 		and	r3, r3, #56
 1852              		.loc 1 1363 3 view .LVU605
 1853 0008 102B     		cmp	r3, #16
 1854 000a 00F0DE80 		beq	.L171
 1855 000e 182B     		cmp	r3, #24
 1856 0010 10D0     		beq	.L165
 1857 0012 0BB1     		cbz	r3, .L177
ARM GAS  C:\Users\cinar\AppData\Local\Temp\ccnsnn81.s 			page 62


 1858 0014 7048     		ldr	r0, .L179+4
 1859 0016 7047     		bx	lr
 1860              	.L177:
1364:Drivers/STM32H7xx_HAL_Driver/Src/stm32h7xx_hal_rcc.c ****   {
1365:Drivers/STM32H7xx_HAL_Driver/Src/stm32h7xx_hal_rcc.c ****   case RCC_CFGR_SWS_HSI:  /* HSI used as system clock source */
1366:Drivers/STM32H7xx_HAL_Driver/Src/stm32h7xx_hal_rcc.c **** 
1367:Drivers/STM32H7xx_HAL_Driver/Src/stm32h7xx_hal_rcc.c ****    if (__HAL_RCC_GET_FLAG(RCC_FLAG_HSIDIV) != 0U)
 1861              		.loc 1 1367 4 is_stmt 1 view .LVU606
 1862              		.loc 1 1367 8 is_stmt 0 view .LVU607
 1863 0018 6E4B     		ldr	r3, .L179
 1864 001a 1B68     		ldr	r3, [r3]
 1865              		.loc 1 1367 7 view .LVU608
 1866 001c 13F0200F 		tst	r3, #32
 1867 0020 00F0D580 		beq	.L173
1368:Drivers/STM32H7xx_HAL_Driver/Src/stm32h7xx_hal_rcc.c ****       {
1369:Drivers/STM32H7xx_HAL_Driver/Src/stm32h7xx_hal_rcc.c ****         sysclockfreq = (uint32_t) (HSI_VALUE >> (__HAL_RCC_GET_HSI_DIVIDER()>> 3));
 1868              		.loc 1 1369 9 is_stmt 1 view .LVU609
 1869              		.loc 1 1369 50 is_stmt 0 view .LVU610
 1870 0024 6B4B     		ldr	r3, .L179
 1871 0026 1868     		ldr	r0, [r3]
 1872              		.loc 1 1369 77 view .LVU611
 1873 0028 C0F3C100 		ubfx	r0, r0, #3, #2
 1874              		.loc 1 1369 22 view .LVU612
 1875 002c 6B4B     		ldr	r3, .L179+8
 1876 002e 23FA00F0 		lsr	r0, r3, r0
 1877              	.LVL146:
 1878              		.loc 1 1369 22 view .LVU613
 1879 0032 7047     		bx	lr
 1880              	.LVL147:
 1881              	.L165:
1356:Drivers/STM32H7xx_HAL_Driver/Src/stm32h7xx_hal_rcc.c ****   uint32_t pllp, pllsource, pllm, pllfracen, hsivalue;
 1882              		.loc 1 1356 1 view .LVU614
 1883 0034 10B4     		push	{r4}
 1884              	.LCFI8:
 1885              		.cfi_def_cfa_offset 4
 1886              		.cfi_offset 4, -4
1370:Drivers/STM32H7xx_HAL_Driver/Src/stm32h7xx_hal_rcc.c ****       }
1371:Drivers/STM32H7xx_HAL_Driver/Src/stm32h7xx_hal_rcc.c ****       else
1372:Drivers/STM32H7xx_HAL_Driver/Src/stm32h7xx_hal_rcc.c ****       {
1373:Drivers/STM32H7xx_HAL_Driver/Src/stm32h7xx_hal_rcc.c ****         sysclockfreq = (uint32_t) HSI_VALUE;
1374:Drivers/STM32H7xx_HAL_Driver/Src/stm32h7xx_hal_rcc.c ****       }
1375:Drivers/STM32H7xx_HAL_Driver/Src/stm32h7xx_hal_rcc.c **** 
1376:Drivers/STM32H7xx_HAL_Driver/Src/stm32h7xx_hal_rcc.c ****     break;
1377:Drivers/STM32H7xx_HAL_Driver/Src/stm32h7xx_hal_rcc.c **** 
1378:Drivers/STM32H7xx_HAL_Driver/Src/stm32h7xx_hal_rcc.c ****   case RCC_CFGR_SWS_CSI:  /* CSI used as system clock  source */
1379:Drivers/STM32H7xx_HAL_Driver/Src/stm32h7xx_hal_rcc.c ****     sysclockfreq = CSI_VALUE;
1380:Drivers/STM32H7xx_HAL_Driver/Src/stm32h7xx_hal_rcc.c ****     break;
1381:Drivers/STM32H7xx_HAL_Driver/Src/stm32h7xx_hal_rcc.c **** 
1382:Drivers/STM32H7xx_HAL_Driver/Src/stm32h7xx_hal_rcc.c ****   case RCC_CFGR_SWS_HSE:  /* HSE used as system clock  source */
1383:Drivers/STM32H7xx_HAL_Driver/Src/stm32h7xx_hal_rcc.c ****     sysclockfreq = HSE_VALUE;
1384:Drivers/STM32H7xx_HAL_Driver/Src/stm32h7xx_hal_rcc.c ****     break;
1385:Drivers/STM32H7xx_HAL_Driver/Src/stm32h7xx_hal_rcc.c **** 
1386:Drivers/STM32H7xx_HAL_Driver/Src/stm32h7xx_hal_rcc.c ****   case RCC_CFGR_SWS_PLL1:  /* PLL1 used as system clock  source */
1387:Drivers/STM32H7xx_HAL_Driver/Src/stm32h7xx_hal_rcc.c **** 
1388:Drivers/STM32H7xx_HAL_Driver/Src/stm32h7xx_hal_rcc.c ****     /* PLL_VCO = (HSE_VALUE or HSI_VALUE or CSI_VALUE/ PLLM) * PLLN
1389:Drivers/STM32H7xx_HAL_Driver/Src/stm32h7xx_hal_rcc.c ****     SYSCLK = PLL_VCO / PLLR
1390:Drivers/STM32H7xx_HAL_Driver/Src/stm32h7xx_hal_rcc.c ****     */
ARM GAS  C:\Users\cinar\AppData\Local\Temp\ccnsnn81.s 			page 63


1391:Drivers/STM32H7xx_HAL_Driver/Src/stm32h7xx_hal_rcc.c ****     pllsource = (RCC->PLLCKSELR & RCC_PLLCKSELR_PLLSRC);
 1887              		.loc 1 1391 5 is_stmt 1 view .LVU615
 1888              		.loc 1 1391 21 is_stmt 0 view .LVU616
 1889 0036 674A     		ldr	r2, .L179
 1890 0038 916A     		ldr	r1, [r2, #40]
 1891              		.loc 1 1391 15 view .LVU617
 1892 003a 01F00301 		and	r1, r1, #3
 1893              	.LVL148:
1392:Drivers/STM32H7xx_HAL_Driver/Src/stm32h7xx_hal_rcc.c ****     pllm = ((RCC->PLLCKSELR & RCC_PLLCKSELR_DIVM1)>> 4)  ;
 1894              		.loc 1 1392 5 is_stmt 1 view .LVU618
 1895              		.loc 1 1392 17 is_stmt 0 view .LVU619
 1896 003e 946A     		ldr	r4, [r2, #40]
 1897              		.loc 1 1392 10 view .LVU620
 1898 0040 C4F30510 		ubfx	r0, r4, #4, #6
 1899              	.LVL149:
1393:Drivers/STM32H7xx_HAL_Driver/Src/stm32h7xx_hal_rcc.c ****     pllfracen = ((RCC-> PLLCFGR & RCC_PLLCFGR_PLL1FRACEN)>>RCC_PLLCFGR_PLL1FRACEN_Pos);
 1900              		.loc 1 1393 5 is_stmt 1 view .LVU621
 1901              		.loc 1 1393 22 is_stmt 0 view .LVU622
 1902 0044 D36A     		ldr	r3, [r2, #44]
 1903              		.loc 1 1393 15 view .LVU623
 1904 0046 03F0010C 		and	ip, r3, #1
 1905              	.LVL150:
1394:Drivers/STM32H7xx_HAL_Driver/Src/stm32h7xx_hal_rcc.c ****     fracn1 = (float_t)(uint32_t)(pllfracen* ((RCC->PLL1FRACR & RCC_PLL1FRACR_FRACN1)>> 3));
 1906              		.loc 1 1394 5 is_stmt 1 view .LVU624
 1907              		.loc 1 1394 50 is_stmt 0 view .LVU625
 1908 004a 536B     		ldr	r3, [r2, #52]
 1909              		.loc 1 1394 85 view .LVU626
 1910 004c C3F3CC03 		ubfx	r3, r3, #3, #13
 1911              		.loc 1 1394 23 view .LVU627
 1912 0050 0CFB03F3 		mul	r3, ip, r3
 1913              		.loc 1 1394 12 view .LVU628
 1914 0054 07EE903A 		vmov	s15, r3	@ int
 1915 0058 F8EE677A 		vcvt.f32.u32	s15, s15
 1916              	.LVL151:
1395:Drivers/STM32H7xx_HAL_Driver/Src/stm32h7xx_hal_rcc.c **** 
1396:Drivers/STM32H7xx_HAL_Driver/Src/stm32h7xx_hal_rcc.c ****     if (pllm != 0U)
 1917              		.loc 1 1396 5 is_stmt 1 view .LVU629
 1918              		.loc 1 1396 8 is_stmt 0 view .LVU630
 1919 005c 14F47C7F 		tst	r4, #1008
 1920 0060 00F09380 		beq	.L163
1397:Drivers/STM32H7xx_HAL_Driver/Src/stm32h7xx_hal_rcc.c ****     {
1398:Drivers/STM32H7xx_HAL_Driver/Src/stm32h7xx_hal_rcc.c ****       switch (pllsource)
 1921              		.loc 1 1398 7 is_stmt 1 view .LVU631
 1922 0064 0129     		cmp	r1, #1
 1923 0066 65D0     		beq	.L166
 1924 0068 0229     		cmp	r1, #2
 1925 006a 00F09180 		beq	.L167
 1926 006e E1B1     		cbz	r1, .L178
1399:Drivers/STM32H7xx_HAL_Driver/Src/stm32h7xx_hal_rcc.c ****       {
1400:Drivers/STM32H7xx_HAL_Driver/Src/stm32h7xx_hal_rcc.c ****       case RCC_PLLSOURCE_HSI:  /* HSI used as PLL clock source */
1401:Drivers/STM32H7xx_HAL_Driver/Src/stm32h7xx_hal_rcc.c **** 
1402:Drivers/STM32H7xx_HAL_Driver/Src/stm32h7xx_hal_rcc.c ****        if (__HAL_RCC_GET_FLAG(RCC_FLAG_HSIDIV) != 0U)
1403:Drivers/STM32H7xx_HAL_Driver/Src/stm32h7xx_hal_rcc.c ****         {
1404:Drivers/STM32H7xx_HAL_Driver/Src/stm32h7xx_hal_rcc.c ****           hsivalue= (HSI_VALUE >> (__HAL_RCC_GET_HSI_DIVIDER()>> 3));
1405:Drivers/STM32H7xx_HAL_Driver/Src/stm32h7xx_hal_rcc.c ****           pllvco = ( (float_t)hsivalue / (float_t)pllm) * ((float_t)(uint32_t)(RCC->PLL1DIVR & RCC_
1406:Drivers/STM32H7xx_HAL_Driver/Src/stm32h7xx_hal_rcc.c ****         }
1407:Drivers/STM32H7xx_HAL_Driver/Src/stm32h7xx_hal_rcc.c ****         else
ARM GAS  C:\Users\cinar\AppData\Local\Temp\ccnsnn81.s 			page 64


1408:Drivers/STM32H7xx_HAL_Driver/Src/stm32h7xx_hal_rcc.c ****         {
1409:Drivers/STM32H7xx_HAL_Driver/Src/stm32h7xx_hal_rcc.c ****           pllvco = ((float_t)HSI_VALUE / (float_t)pllm) * ((float_t)(uint32_t)(RCC->PLL1DIVR & RCC_
1410:Drivers/STM32H7xx_HAL_Driver/Src/stm32h7xx_hal_rcc.c ****         }
1411:Drivers/STM32H7xx_HAL_Driver/Src/stm32h7xx_hal_rcc.c ****         break;
1412:Drivers/STM32H7xx_HAL_Driver/Src/stm32h7xx_hal_rcc.c **** 
1413:Drivers/STM32H7xx_HAL_Driver/Src/stm32h7xx_hal_rcc.c ****       case RCC_PLLSOURCE_CSI:  /* CSI used as PLL clock source */
1414:Drivers/STM32H7xx_HAL_Driver/Src/stm32h7xx_hal_rcc.c ****         pllvco = ((float_t)CSI_VALUE / (float_t)pllm) * ((float_t)(uint32_t)(RCC->PLL1DIVR & RCC_PL
1415:Drivers/STM32H7xx_HAL_Driver/Src/stm32h7xx_hal_rcc.c ****         break;
1416:Drivers/STM32H7xx_HAL_Driver/Src/stm32h7xx_hal_rcc.c **** 
1417:Drivers/STM32H7xx_HAL_Driver/Src/stm32h7xx_hal_rcc.c ****       case RCC_PLLSOURCE_HSE:  /* HSE used as PLL clock source */
1418:Drivers/STM32H7xx_HAL_Driver/Src/stm32h7xx_hal_rcc.c ****         pllvco = ((float_t)HSE_VALUE / (float_t)pllm) * ((float_t)(uint32_t)(RCC->PLL1DIVR & RCC_PL
1419:Drivers/STM32H7xx_HAL_Driver/Src/stm32h7xx_hal_rcc.c ****         break;
1420:Drivers/STM32H7xx_HAL_Driver/Src/stm32h7xx_hal_rcc.c **** 
1421:Drivers/STM32H7xx_HAL_Driver/Src/stm32h7xx_hal_rcc.c ****       default:
1422:Drivers/STM32H7xx_HAL_Driver/Src/stm32h7xx_hal_rcc.c ****         pllvco = ((float_t)CSI_VALUE / (float_t)pllm) * ((float_t)(uint32_t)(RCC->PLL1DIVR & RCC_PL
 1927              		.loc 1 1422 9 view .LVU632
 1928              		.loc 1 1422 40 is_stmt 0 view .LVU633
 1929 0070 07EE100A 		vmov	s14, r0	@ int
 1930 0074 F8EE476A 		vcvt.f32.u32	s13, s14
 1931              		.loc 1 1422 38 view .LVU634
 1932 0078 9FED596A 		vldr.32	s12, .L179+12
 1933 007c 86EE267A 		vdiv.f32	s14, s12, s13
 1934              		.loc 1 1422 81 view .LVU635
 1935 0080 544B     		ldr	r3, .L179
 1936 0082 1B6B     		ldr	r3, [r3, #48]
 1937              		.loc 1 1422 67 view .LVU636
 1938 0084 C3F30803 		ubfx	r3, r3, #0, #9
 1939              		.loc 1 1422 58 view .LVU637
 1940 0088 06EE903A 		vmov	s13, r3	@ int
 1941 008c F8EE666A 		vcvt.f32.u32	s13, s13
 1942              		.loc 1 1422 120 view .LVU638
 1943 0090 9FED546A 		vldr.32	s12, .L179+16
 1944 0094 67EE867A 		vmul.f32	s15, s15, s12
 1945              	.LVL152:
 1946              		.loc 1 1422 111 view .LVU639
 1947 0098 76EEA77A 		vadd.f32	s15, s13, s15
 1948              		.loc 1 1422 138 view .LVU640
 1949 009c F7EE006A 		vmov.f32	s13, #1.0e+0
 1950 00a0 77EEA67A 		vadd.f32	s15, s15, s13
 1951              		.loc 1 1422 16 view .LVU641
 1952 00a4 27EE277A 		vmul.f32	s14, s14, s15
 1953              	.LVL153:
1423:Drivers/STM32H7xx_HAL_Driver/Src/stm32h7xx_hal_rcc.c ****         break;
 1954              		.loc 1 1423 9 is_stmt 1 view .LVU642
 1955 00a8 60E0     		b	.L170
 1956              	.LVL154:
 1957              	.L178:
1402:Drivers/STM32H7xx_HAL_Driver/Src/stm32h7xx_hal_rcc.c ****         {
 1958              		.loc 1 1402 8 view .LVU643
1402:Drivers/STM32H7xx_HAL_Driver/Src/stm32h7xx_hal_rcc.c ****         {
 1959              		.loc 1 1402 12 is_stmt 0 view .LVU644
 1960 00aa 1368     		ldr	r3, [r2]
1402:Drivers/STM32H7xx_HAL_Driver/Src/stm32h7xx_hal_rcc.c ****         {
 1961              		.loc 1 1402 11 view .LVU645
 1962 00ac 13F0200F 		tst	r3, #32
 1963 00b0 23D0     		beq	.L169
1404:Drivers/STM32H7xx_HAL_Driver/Src/stm32h7xx_hal_rcc.c ****           pllvco = ( (float_t)hsivalue / (float_t)pllm) * ((float_t)(uint32_t)(RCC->PLL1DIVR & RCC_
ARM GAS  C:\Users\cinar\AppData\Local\Temp\ccnsnn81.s 			page 65


 1964              		.loc 1 1404 11 is_stmt 1 view .LVU646
1404:Drivers/STM32H7xx_HAL_Driver/Src/stm32h7xx_hal_rcc.c ****           pllvco = ( (float_t)hsivalue / (float_t)pllm) * ((float_t)(uint32_t)(RCC->PLL1DIVR & RCC_
 1965              		.loc 1 1404 36 is_stmt 0 view .LVU647
 1966 00b2 1146     		mov	r1, r2
 1967              	.LVL155:
1404:Drivers/STM32H7xx_HAL_Driver/Src/stm32h7xx_hal_rcc.c ****           pllvco = ( (float_t)hsivalue / (float_t)pllm) * ((float_t)(uint32_t)(RCC->PLL1DIVR & RCC_
 1968              		.loc 1 1404 36 view .LVU648
 1969 00b4 1268     		ldr	r2, [r2]
1404:Drivers/STM32H7xx_HAL_Driver/Src/stm32h7xx_hal_rcc.c ****           pllvco = ( (float_t)hsivalue / (float_t)pllm) * ((float_t)(uint32_t)(RCC->PLL1DIVR & RCC_
 1970              		.loc 1 1404 63 view .LVU649
 1971 00b6 C2F3C102 		ubfx	r2, r2, #3, #2
1404:Drivers/STM32H7xx_HAL_Driver/Src/stm32h7xx_hal_rcc.c ****           pllvco = ( (float_t)hsivalue / (float_t)pllm) * ((float_t)(uint32_t)(RCC->PLL1DIVR & RCC_
 1972              		.loc 1 1404 19 view .LVU650
 1973 00ba 484B     		ldr	r3, .L179+8
 1974 00bc D340     		lsrs	r3, r3, r2
 1975              	.LVL156:
1405:Drivers/STM32H7xx_HAL_Driver/Src/stm32h7xx_hal_rcc.c ****         }
 1976              		.loc 1 1405 11 is_stmt 1 view .LVU651
1405:Drivers/STM32H7xx_HAL_Driver/Src/stm32h7xx_hal_rcc.c ****         }
 1977              		.loc 1 1405 22 is_stmt 0 view .LVU652
 1978 00be 07EE103A 		vmov	s14, r3	@ int
 1979 00c2 F8EE476A 		vcvt.f32.u32	s13, s14
1405:Drivers/STM32H7xx_HAL_Driver/Src/stm32h7xx_hal_rcc.c ****         }
 1980              		.loc 1 1405 42 view .LVU653
 1981 00c6 07EE100A 		vmov	s14, r0	@ int
 1982 00ca B8EE476A 		vcvt.f32.u32	s12, s14
1405:Drivers/STM32H7xx_HAL_Driver/Src/stm32h7xx_hal_rcc.c ****         }
 1983              		.loc 1 1405 40 view .LVU654
 1984 00ce 86EE867A 		vdiv.f32	s14, s13, s12
1405:Drivers/STM32H7xx_HAL_Driver/Src/stm32h7xx_hal_rcc.c ****         }
 1985              		.loc 1 1405 83 view .LVU655
 1986 00d2 0B6B     		ldr	r3, [r1, #48]
 1987              	.LVL157:
1405:Drivers/STM32H7xx_HAL_Driver/Src/stm32h7xx_hal_rcc.c ****         }
 1988              		.loc 1 1405 69 view .LVU656
 1989 00d4 C3F30803 		ubfx	r3, r3, #0, #9
1405:Drivers/STM32H7xx_HAL_Driver/Src/stm32h7xx_hal_rcc.c ****         }
 1990              		.loc 1 1405 60 view .LVU657
 1991 00d8 06EE903A 		vmov	s13, r3	@ int
 1992 00dc F8EE666A 		vcvt.f32.u32	s13, s13
1405:Drivers/STM32H7xx_HAL_Driver/Src/stm32h7xx_hal_rcc.c ****         }
 1993              		.loc 1 1405 122 view .LVU658
 1994 00e0 9FED406A 		vldr.32	s12, .L179+16
 1995 00e4 67EE867A 		vmul.f32	s15, s15, s12
 1996              	.LVL158:
1405:Drivers/STM32H7xx_HAL_Driver/Src/stm32h7xx_hal_rcc.c ****         }
 1997              		.loc 1 1405 113 view .LVU659
 1998 00e8 76EEA77A 		vadd.f32	s15, s13, s15
1405:Drivers/STM32H7xx_HAL_Driver/Src/stm32h7xx_hal_rcc.c ****         }
 1999              		.loc 1 1405 140 view .LVU660
 2000 00ec F7EE006A 		vmov.f32	s13, #1.0e+0
 2001 00f0 77EEA67A 		vadd.f32	s15, s15, s13
1405:Drivers/STM32H7xx_HAL_Driver/Src/stm32h7xx_hal_rcc.c ****         }
 2002              		.loc 1 1405 18 view .LVU661
 2003 00f4 27EE277A 		vmul.f32	s14, s14, s15
 2004              	.LVL159:
1405:Drivers/STM32H7xx_HAL_Driver/Src/stm32h7xx_hal_rcc.c ****         }
ARM GAS  C:\Users\cinar\AppData\Local\Temp\ccnsnn81.s 			page 66


 2005              		.loc 1 1405 18 view .LVU662
 2006 00f8 38E0     		b	.L170
 2007              	.LVL160:
 2008              	.L169:
1409:Drivers/STM32H7xx_HAL_Driver/Src/stm32h7xx_hal_rcc.c ****         }
 2009              		.loc 1 1409 11 is_stmt 1 view .LVU663
1409:Drivers/STM32H7xx_HAL_Driver/Src/stm32h7xx_hal_rcc.c ****         }
 2010              		.loc 1 1409 42 is_stmt 0 view .LVU664
 2011 00fa 07EE100A 		vmov	s14, r0	@ int
 2012 00fe F8EE476A 		vcvt.f32.u32	s13, s14
1409:Drivers/STM32H7xx_HAL_Driver/Src/stm32h7xx_hal_rcc.c ****         }
 2013              		.loc 1 1409 40 view .LVU665
 2014 0102 9FED396A 		vldr.32	s12, .L179+20
 2015 0106 86EE267A 		vdiv.f32	s14, s12, s13
1409:Drivers/STM32H7xx_HAL_Driver/Src/stm32h7xx_hal_rcc.c ****         }
 2016              		.loc 1 1409 83 view .LVU666
 2017 010a 324B     		ldr	r3, .L179
 2018 010c 1B6B     		ldr	r3, [r3, #48]
1409:Drivers/STM32H7xx_HAL_Driver/Src/stm32h7xx_hal_rcc.c ****         }
 2019              		.loc 1 1409 69 view .LVU667
 2020 010e C3F30803 		ubfx	r3, r3, #0, #9
1409:Drivers/STM32H7xx_HAL_Driver/Src/stm32h7xx_hal_rcc.c ****         }
 2021              		.loc 1 1409 60 view .LVU668
 2022 0112 06EE903A 		vmov	s13, r3	@ int
 2023 0116 F8EE666A 		vcvt.f32.u32	s13, s13
1409:Drivers/STM32H7xx_HAL_Driver/Src/stm32h7xx_hal_rcc.c ****         }
 2024              		.loc 1 1409 122 view .LVU669
 2025 011a 9FED326A 		vldr.32	s12, .L179+16
 2026 011e 67EE867A 		vmul.f32	s15, s15, s12
 2027              	.LVL161:
1409:Drivers/STM32H7xx_HAL_Driver/Src/stm32h7xx_hal_rcc.c ****         }
 2028              		.loc 1 1409 113 view .LVU670
 2029 0122 76EEA77A 		vadd.f32	s15, s13, s15
1409:Drivers/STM32H7xx_HAL_Driver/Src/stm32h7xx_hal_rcc.c ****         }
 2030              		.loc 1 1409 140 view .LVU671
 2031 0126 F7EE006A 		vmov.f32	s13, #1.0e+0
 2032 012a 77EEA67A 		vadd.f32	s15, s15, s13
1409:Drivers/STM32H7xx_HAL_Driver/Src/stm32h7xx_hal_rcc.c ****         }
 2033              		.loc 1 1409 18 view .LVU672
 2034 012e 27EE277A 		vmul.f32	s14, s14, s15
 2035              	.LVL162:
1409:Drivers/STM32H7xx_HAL_Driver/Src/stm32h7xx_hal_rcc.c ****         }
 2036              		.loc 1 1409 18 view .LVU673
 2037 0132 1BE0     		b	.L170
 2038              	.LVL163:
 2039              	.L166:
1414:Drivers/STM32H7xx_HAL_Driver/Src/stm32h7xx_hal_rcc.c ****         break;
 2040              		.loc 1 1414 9 is_stmt 1 view .LVU674
1414:Drivers/STM32H7xx_HAL_Driver/Src/stm32h7xx_hal_rcc.c ****         break;
 2041              		.loc 1 1414 40 is_stmt 0 view .LVU675
 2042 0134 07EE100A 		vmov	s14, r0	@ int
 2043 0138 F8EE476A 		vcvt.f32.u32	s13, s14
1414:Drivers/STM32H7xx_HAL_Driver/Src/stm32h7xx_hal_rcc.c ****         break;
 2044              		.loc 1 1414 38 view .LVU676
 2045 013c 9FED286A 		vldr.32	s12, .L179+12
 2046 0140 86EE267A 		vdiv.f32	s14, s12, s13
1414:Drivers/STM32H7xx_HAL_Driver/Src/stm32h7xx_hal_rcc.c ****         break;
ARM GAS  C:\Users\cinar\AppData\Local\Temp\ccnsnn81.s 			page 67


 2047              		.loc 1 1414 81 view .LVU677
 2048 0144 234B     		ldr	r3, .L179
 2049 0146 1B6B     		ldr	r3, [r3, #48]
1414:Drivers/STM32H7xx_HAL_Driver/Src/stm32h7xx_hal_rcc.c ****         break;
 2050              		.loc 1 1414 67 view .LVU678
 2051 0148 C3F30803 		ubfx	r3, r3, #0, #9
1414:Drivers/STM32H7xx_HAL_Driver/Src/stm32h7xx_hal_rcc.c ****         break;
 2052              		.loc 1 1414 58 view .LVU679
 2053 014c 06EE903A 		vmov	s13, r3	@ int
 2054 0150 F8EE666A 		vcvt.f32.u32	s13, s13
1414:Drivers/STM32H7xx_HAL_Driver/Src/stm32h7xx_hal_rcc.c ****         break;
 2055              		.loc 1 1414 120 view .LVU680
 2056 0154 9FED236A 		vldr.32	s12, .L179+16
 2057 0158 67EE867A 		vmul.f32	s15, s15, s12
 2058              	.LVL164:
1414:Drivers/STM32H7xx_HAL_Driver/Src/stm32h7xx_hal_rcc.c ****         break;
 2059              		.loc 1 1414 111 view .LVU681
 2060 015c 76EEA77A 		vadd.f32	s15, s13, s15
1414:Drivers/STM32H7xx_HAL_Driver/Src/stm32h7xx_hal_rcc.c ****         break;
 2061              		.loc 1 1414 138 view .LVU682
 2062 0160 F7EE006A 		vmov.f32	s13, #1.0e+0
 2063 0164 77EEA67A 		vadd.f32	s15, s15, s13
1414:Drivers/STM32H7xx_HAL_Driver/Src/stm32h7xx_hal_rcc.c ****         break;
 2064              		.loc 1 1414 16 view .LVU683
 2065 0168 27EE277A 		vmul.f32	s14, s14, s15
 2066              	.LVL165:
1415:Drivers/STM32H7xx_HAL_Driver/Src/stm32h7xx_hal_rcc.c **** 
 2067              		.loc 1 1415 9 is_stmt 1 view .LVU684
 2068              	.L170:
1424:Drivers/STM32H7xx_HAL_Driver/Src/stm32h7xx_hal_rcc.c ****       }
1425:Drivers/STM32H7xx_HAL_Driver/Src/stm32h7xx_hal_rcc.c ****       pllp = (((RCC->PLL1DIVR & RCC_PLL1DIVR_P1) >>9) + 1U ) ;
 2069              		.loc 1 1425 7 view .LVU685
 2070              		.loc 1 1425 20 is_stmt 0 view .LVU686
 2071 016c 194B     		ldr	r3, .L179
 2072 016e 1B6B     		ldr	r3, [r3, #48]
 2073              		.loc 1 1425 50 view .LVU687
 2074 0170 C3F34623 		ubfx	r3, r3, #9, #7
 2075              		.loc 1 1425 12 view .LVU688
 2076 0174 0133     		adds	r3, r3, #1
 2077              	.LVL166:
1426:Drivers/STM32H7xx_HAL_Driver/Src/stm32h7xx_hal_rcc.c ****       sysclockfreq =  (uint32_t)(float_t)(pllvco/(float_t)pllp);
 2078              		.loc 1 1426 7 is_stmt 1 view .LVU689
 2079              		.loc 1 1426 50 is_stmt 0 view .LVU690
 2080 0176 07EE903A 		vmov	s15, r3	@ int
 2081 017a F8EE677A 		vcvt.f32.u32	s15, s15
 2082              		.loc 1 1426 33 view .LVU691
 2083 017e C7EE276A 		vdiv.f32	s13, s14, s15
 2084              		.loc 1 1426 20 view .LVU692
 2085 0182 FCEEE67A 		vcvt.u32.f32	s15, s13
 2086 0186 17EE900A 		vmov	r0, s15	@ int
 2087              	.LVL167:
 2088              	.L163:
1427:Drivers/STM32H7xx_HAL_Driver/Src/stm32h7xx_hal_rcc.c ****     }
1428:Drivers/STM32H7xx_HAL_Driver/Src/stm32h7xx_hal_rcc.c ****     else
1429:Drivers/STM32H7xx_HAL_Driver/Src/stm32h7xx_hal_rcc.c ****     {
1430:Drivers/STM32H7xx_HAL_Driver/Src/stm32h7xx_hal_rcc.c ****       sysclockfreq = 0U;
1431:Drivers/STM32H7xx_HAL_Driver/Src/stm32h7xx_hal_rcc.c ****     }
ARM GAS  C:\Users\cinar\AppData\Local\Temp\ccnsnn81.s 			page 68


1432:Drivers/STM32H7xx_HAL_Driver/Src/stm32h7xx_hal_rcc.c ****     break;
1433:Drivers/STM32H7xx_HAL_Driver/Src/stm32h7xx_hal_rcc.c **** 
1434:Drivers/STM32H7xx_HAL_Driver/Src/stm32h7xx_hal_rcc.c ****   default:
1435:Drivers/STM32H7xx_HAL_Driver/Src/stm32h7xx_hal_rcc.c ****     sysclockfreq = CSI_VALUE;
1436:Drivers/STM32H7xx_HAL_Driver/Src/stm32h7xx_hal_rcc.c ****     break;
1437:Drivers/STM32H7xx_HAL_Driver/Src/stm32h7xx_hal_rcc.c ****   }
1438:Drivers/STM32H7xx_HAL_Driver/Src/stm32h7xx_hal_rcc.c **** 
1439:Drivers/STM32H7xx_HAL_Driver/Src/stm32h7xx_hal_rcc.c ****   return sysclockfreq;
1440:Drivers/STM32H7xx_HAL_Driver/Src/stm32h7xx_hal_rcc.c **** }
 2089              		.loc 1 1440 1 view .LVU693
 2090 018a 5DF8044B 		ldr	r4, [sp], #4
 2091              	.LCFI9:
 2092              		.cfi_remember_state
 2093              		.cfi_restore 4
 2094              		.cfi_def_cfa_offset 0
 2095              	.LVL168:
 2096              		.loc 1 1440 1 view .LVU694
 2097 018e 7047     		bx	lr
 2098              	.LVL169:
 2099              	.L167:
 2100              	.LCFI10:
 2101              		.cfi_restore_state
1418:Drivers/STM32H7xx_HAL_Driver/Src/stm32h7xx_hal_rcc.c ****         break;
 2102              		.loc 1 1418 9 is_stmt 1 view .LVU695
1418:Drivers/STM32H7xx_HAL_Driver/Src/stm32h7xx_hal_rcc.c ****         break;
 2103              		.loc 1 1418 40 is_stmt 0 view .LVU696
 2104 0190 07EE100A 		vmov	s14, r0	@ int
 2105 0194 F8EE476A 		vcvt.f32.u32	s13, s14
1418:Drivers/STM32H7xx_HAL_Driver/Src/stm32h7xx_hal_rcc.c ****         break;
 2106              		.loc 1 1418 38 view .LVU697
 2107 0198 9FED146A 		vldr.32	s12, .L179+24
 2108 019c 86EE267A 		vdiv.f32	s14, s12, s13
1418:Drivers/STM32H7xx_HAL_Driver/Src/stm32h7xx_hal_rcc.c ****         break;
 2109              		.loc 1 1418 81 view .LVU698
 2110 01a0 0C4B     		ldr	r3, .L179
 2111 01a2 1B6B     		ldr	r3, [r3, #48]
1418:Drivers/STM32H7xx_HAL_Driver/Src/stm32h7xx_hal_rcc.c ****         break;
 2112              		.loc 1 1418 67 view .LVU699
 2113 01a4 C3F30803 		ubfx	r3, r3, #0, #9
1418:Drivers/STM32H7xx_HAL_Driver/Src/stm32h7xx_hal_rcc.c ****         break;
 2114              		.loc 1 1418 58 view .LVU700
 2115 01a8 06EE903A 		vmov	s13, r3	@ int
 2116 01ac F8EE666A 		vcvt.f32.u32	s13, s13
1418:Drivers/STM32H7xx_HAL_Driver/Src/stm32h7xx_hal_rcc.c ****         break;
 2117              		.loc 1 1418 120 view .LVU701
 2118 01b0 9FED0C6A 		vldr.32	s12, .L179+16
 2119 01b4 67EE867A 		vmul.f32	s15, s15, s12
 2120              	.LVL170:
1418:Drivers/STM32H7xx_HAL_Driver/Src/stm32h7xx_hal_rcc.c ****         break;
 2121              		.loc 1 1418 111 view .LVU702
 2122 01b8 76EEA77A 		vadd.f32	s15, s13, s15
1418:Drivers/STM32H7xx_HAL_Driver/Src/stm32h7xx_hal_rcc.c ****         break;
 2123              		.loc 1 1418 138 view .LVU703
 2124 01bc F7EE006A 		vmov.f32	s13, #1.0e+0
 2125 01c0 77EEA67A 		vadd.f32	s15, s15, s13
1418:Drivers/STM32H7xx_HAL_Driver/Src/stm32h7xx_hal_rcc.c ****         break;
 2126              		.loc 1 1418 16 view .LVU704
ARM GAS  C:\Users\cinar\AppData\Local\Temp\ccnsnn81.s 			page 69


 2127 01c4 27EE277A 		vmul.f32	s14, s14, s15
 2128              	.LVL171:
1419:Drivers/STM32H7xx_HAL_Driver/Src/stm32h7xx_hal_rcc.c **** 
 2129              		.loc 1 1419 9 is_stmt 1 view .LVU705
 2130 01c8 D0E7     		b	.L170
 2131              	.LVL172:
 2132              	.L171:
 2133              	.LCFI11:
 2134              		.cfi_def_cfa_offset 0
 2135              		.cfi_restore 4
1383:Drivers/STM32H7xx_HAL_Driver/Src/stm32h7xx_hal_rcc.c ****     break;
 2136              		.loc 1 1383 18 is_stmt 0 view .LVU706
 2137 01ca 0948     		ldr	r0, .L179+28
 2138 01cc 7047     		bx	lr
 2139              	.L173:
1373:Drivers/STM32H7xx_HAL_Driver/Src/stm32h7xx_hal_rcc.c ****       }
 2140              		.loc 1 1373 22 view .LVU707
 2141 01ce 0348     		ldr	r0, .L179+8
 2142              	.LVL173:
1439:Drivers/STM32H7xx_HAL_Driver/Src/stm32h7xx_hal_rcc.c **** }
 2143              		.loc 1 1439 3 is_stmt 1 view .LVU708
 2144              		.loc 1 1440 1 is_stmt 0 view .LVU709
 2145 01d0 7047     		bx	lr
 2146              	.L180:
 2147 01d2 00BF     		.align	2
 2148              	.L179:
 2149 01d4 00440258 		.word	1476543488
 2150 01d8 00093D00 		.word	4000000
 2151 01dc 0090D003 		.word	64000000
 2152 01e0 0024744A 		.word	1249125376
 2153 01e4 00000039 		.word	956301312
 2154 01e8 0024744C 		.word	1282679808
 2155 01ec 0024F44A 		.word	1257513984
 2156 01f0 00127A00 		.word	8000000
 2157              		.cfi_endproc
 2158              	.LFE150:
 2160              		.section	.text.HAL_RCC_ClockConfig,"ax",%progbits
 2161              		.align	1
 2162              		.global	HAL_RCC_ClockConfig
 2163              		.syntax unified
 2164              		.thumb
 2165              		.thumb_func
 2166              		.fpu fpv5-d16
 2168              	HAL_RCC_ClockConfig:
 2169              	.LVL174:
 2170              	.LFB146:
 890:Drivers/STM32H7xx_HAL_Driver/Src/stm32h7xx_hal_rcc.c ****   HAL_StatusTypeDef halstatus;
 2171              		.loc 1 890 1 is_stmt 1 view -0
 2172              		.cfi_startproc
 2173              		@ args = 0, pretend = 0, frame = 0
 2174              		@ frame_needed = 0, uses_anonymous_args = 0
 891:Drivers/STM32H7xx_HAL_Driver/Src/stm32h7xx_hal_rcc.c ****   uint32_t tickstart;
 2175              		.loc 1 891 3 view .LVU711
 892:Drivers/STM32H7xx_HAL_Driver/Src/stm32h7xx_hal_rcc.c ****   uint32_t common_system_clock;
 2176              		.loc 1 892 3 view .LVU712
 893:Drivers/STM32H7xx_HAL_Driver/Src/stm32h7xx_hal_rcc.c **** 
 2177              		.loc 1 893 3 view .LVU713
ARM GAS  C:\Users\cinar\AppData\Local\Temp\ccnsnn81.s 			page 70


 896:Drivers/STM32H7xx_HAL_Driver/Src/stm32h7xx_hal_rcc.c ****   {
 2178              		.loc 1 896 3 view .LVU714
 896:Drivers/STM32H7xx_HAL_Driver/Src/stm32h7xx_hal_rcc.c ****   {
 2179              		.loc 1 896 5 is_stmt 0 view .LVU715
 2180 0000 0028     		cmp	r0, #0
 2181 0002 00F03281 		beq	.L202
 890:Drivers/STM32H7xx_HAL_Driver/Src/stm32h7xx_hal_rcc.c ****   HAL_StatusTypeDef halstatus;
 2182              		.loc 1 890 1 view .LVU716
 2183 0006 70B5     		push	{r4, r5, r6, lr}
 2184              	.LCFI12:
 2185              		.cfi_def_cfa_offset 16
 2186              		.cfi_offset 4, -16
 2187              		.cfi_offset 5, -12
 2188              		.cfi_offset 6, -8
 2189              		.cfi_offset 14, -4
 2190 0008 0D46     		mov	r5, r1
 2191 000a 0446     		mov	r4, r0
 902:Drivers/STM32H7xx_HAL_Driver/Src/stm32h7xx_hal_rcc.c ****   assert_param(IS_FLASH_LATENCY(FLatency));
 2192              		.loc 1 902 3 is_stmt 1 view .LVU717
 903:Drivers/STM32H7xx_HAL_Driver/Src/stm32h7xx_hal_rcc.c **** 
 2193              		.loc 1 903 3 view .LVU718
 910:Drivers/STM32H7xx_HAL_Driver/Src/stm32h7xx_hal_rcc.c ****   {
 2194              		.loc 1 910 3 view .LVU719
 910:Drivers/STM32H7xx_HAL_Driver/Src/stm32h7xx_hal_rcc.c ****   {
 2195              		.loc 1 910 17 is_stmt 0 view .LVU720
 2196 000c 9B4B     		ldr	r3, .L218
 2197 000e 1B68     		ldr	r3, [r3]
 2198 0010 03F00F03 		and	r3, r3, #15
 910:Drivers/STM32H7xx_HAL_Driver/Src/stm32h7xx_hal_rcc.c ****   {
 2199              		.loc 1 910 5 view .LVU721
 2200 0014 8B42     		cmp	r3, r1
 2201 0016 0BD2     		bcs	.L183
 913:Drivers/STM32H7xx_HAL_Driver/Src/stm32h7xx_hal_rcc.c **** 
 2202              		.loc 1 913 5 is_stmt 1 view .LVU722
 2203 0018 984A     		ldr	r2, .L218
 2204 001a 1368     		ldr	r3, [r2]
 2205 001c 23F00F03 		bic	r3, r3, #15
 2206 0020 0B43     		orrs	r3, r3, r1
 2207 0022 1360     		str	r3, [r2]
 917:Drivers/STM32H7xx_HAL_Driver/Src/stm32h7xx_hal_rcc.c ****     {
 2208              		.loc 1 917 5 view .LVU723
 917:Drivers/STM32H7xx_HAL_Driver/Src/stm32h7xx_hal_rcc.c ****     {
 2209              		.loc 1 917 8 is_stmt 0 view .LVU724
 2210 0024 1368     		ldr	r3, [r2]
 2211 0026 03F00F03 		and	r3, r3, #15
 917:Drivers/STM32H7xx_HAL_Driver/Src/stm32h7xx_hal_rcc.c ****     {
 2212              		.loc 1 917 7 view .LVU725
 2213 002a 8B42     		cmp	r3, r1
 2214 002c 40F01F81 		bne	.L203
 2215              	.L183:
 926:Drivers/STM32H7xx_HAL_Driver/Src/stm32h7xx_hal_rcc.c ****   {
 2216              		.loc 1 926 3 is_stmt 1 view .LVU726
 926:Drivers/STM32H7xx_HAL_Driver/Src/stm32h7xx_hal_rcc.c ****   {
 2217              		.loc 1 926 25 is_stmt 0 view .LVU727
 2218 0030 2368     		ldr	r3, [r4]
 926:Drivers/STM32H7xx_HAL_Driver/Src/stm32h7xx_hal_rcc.c ****   {
 2219              		.loc 1 926 5 view .LVU728
ARM GAS  C:\Users\cinar\AppData\Local\Temp\ccnsnn81.s 			page 71


 2220 0032 13F0040F 		tst	r3, #4
 2221 0036 0CD0     		beq	.L184
 929:Drivers/STM32H7xx_HAL_Driver/Src/stm32h7xx_hal_rcc.c ****     {
 2222              		.loc 1 929 5 is_stmt 1 view .LVU729
 929:Drivers/STM32H7xx_HAL_Driver/Src/stm32h7xx_hal_rcc.c ****     {
 2223              		.loc 1 929 26 is_stmt 0 view .LVU730
 2224 0038 2269     		ldr	r2, [r4, #16]
 929:Drivers/STM32H7xx_HAL_Driver/Src/stm32h7xx_hal_rcc.c ****     {
 2225              		.loc 1 929 50 view .LVU731
 2226 003a 914B     		ldr	r3, .L218+4
 2227 003c 9B69     		ldr	r3, [r3, #24]
 929:Drivers/STM32H7xx_HAL_Driver/Src/stm32h7xx_hal_rcc.c ****     {
 2228              		.loc 1 929 59 view .LVU732
 2229 003e 03F07003 		and	r3, r3, #112
 929:Drivers/STM32H7xx_HAL_Driver/Src/stm32h7xx_hal_rcc.c ****     {
 2230              		.loc 1 929 7 view .LVU733
 2231 0042 9A42     		cmp	r2, r3
 2232 0044 05D9     		bls	.L184
 931:Drivers/STM32H7xx_HAL_Driver/Src/stm32h7xx_hal_rcc.c ****       MODIFY_REG(RCC->D1CFGR, RCC_D1CFGR_D1PPRE, RCC_ClkInitStruct->APB3CLKDivider);
 2233              		.loc 1 931 7 is_stmt 1 view .LVU734
 932:Drivers/STM32H7xx_HAL_Driver/Src/stm32h7xx_hal_rcc.c ****     }
 2234              		.loc 1 932 7 view .LVU735
 2235 0046 8E49     		ldr	r1, .L218+4
 2236              	.LVL175:
 932:Drivers/STM32H7xx_HAL_Driver/Src/stm32h7xx_hal_rcc.c ****     }
 2237              		.loc 1 932 7 is_stmt 0 view .LVU736
 2238 0048 8B69     		ldr	r3, [r1, #24]
 2239 004a 23F07003 		bic	r3, r3, #112
 2240 004e 1A43     		orrs	r2, r2, r3
 2241 0050 8A61     		str	r2, [r1, #24]
 2242              	.L184:
 944:Drivers/STM32H7xx_HAL_Driver/Src/stm32h7xx_hal_rcc.c ****   {
 2243              		.loc 1 944 3 is_stmt 1 view .LVU737
 944:Drivers/STM32H7xx_HAL_Driver/Src/stm32h7xx_hal_rcc.c ****   {
 2244              		.loc 1 944 25 is_stmt 0 view .LVU738
 2245 0052 2368     		ldr	r3, [r4]
 944:Drivers/STM32H7xx_HAL_Driver/Src/stm32h7xx_hal_rcc.c ****   {
 2246              		.loc 1 944 5 view .LVU739
 2247 0054 13F0080F 		tst	r3, #8
 2248 0058 0CD0     		beq	.L185
 947:Drivers/STM32H7xx_HAL_Driver/Src/stm32h7xx_hal_rcc.c ****     {
 2249              		.loc 1 947 5 is_stmt 1 view .LVU740
 947:Drivers/STM32H7xx_HAL_Driver/Src/stm32h7xx_hal_rcc.c ****     {
 2250              		.loc 1 947 26 is_stmt 0 view .LVU741
 2251 005a 6269     		ldr	r2, [r4, #20]
 947:Drivers/STM32H7xx_HAL_Driver/Src/stm32h7xx_hal_rcc.c ****     {
 2252              		.loc 1 947 50 view .LVU742
 2253 005c 884B     		ldr	r3, .L218+4
 2254 005e DB69     		ldr	r3, [r3, #28]
 947:Drivers/STM32H7xx_HAL_Driver/Src/stm32h7xx_hal_rcc.c ****     {
 2255              		.loc 1 947 59 view .LVU743
 2256 0060 03F07003 		and	r3, r3, #112
 947:Drivers/STM32H7xx_HAL_Driver/Src/stm32h7xx_hal_rcc.c ****     {
 2257              		.loc 1 947 7 view .LVU744
 2258 0064 9A42     		cmp	r2, r3
 2259 0066 05D9     		bls	.L185
 949:Drivers/STM32H7xx_HAL_Driver/Src/stm32h7xx_hal_rcc.c ****       MODIFY_REG(RCC->D2CFGR, RCC_D2CFGR_D2PPRE1, (RCC_ClkInitStruct->APB1CLKDivider));
ARM GAS  C:\Users\cinar\AppData\Local\Temp\ccnsnn81.s 			page 72


 2260              		.loc 1 949 7 is_stmt 1 view .LVU745
 950:Drivers/STM32H7xx_HAL_Driver/Src/stm32h7xx_hal_rcc.c ****     }
 2261              		.loc 1 950 7 view .LVU746
 2262 0068 8549     		ldr	r1, .L218+4
 2263 006a CB69     		ldr	r3, [r1, #28]
 2264 006c 23F07003 		bic	r3, r3, #112
 2265 0070 1A43     		orrs	r2, r2, r3
 2266 0072 CA61     		str	r2, [r1, #28]
 2267              	.L185:
 961:Drivers/STM32H7xx_HAL_Driver/Src/stm32h7xx_hal_rcc.c ****   {
 2268              		.loc 1 961 3 view .LVU747
 961:Drivers/STM32H7xx_HAL_Driver/Src/stm32h7xx_hal_rcc.c ****   {
 2269              		.loc 1 961 25 is_stmt 0 view .LVU748
 2270 0074 2368     		ldr	r3, [r4]
 961:Drivers/STM32H7xx_HAL_Driver/Src/stm32h7xx_hal_rcc.c ****   {
 2271              		.loc 1 961 5 view .LVU749
 2272 0076 13F0100F 		tst	r3, #16
 2273 007a 0CD0     		beq	.L186
 964:Drivers/STM32H7xx_HAL_Driver/Src/stm32h7xx_hal_rcc.c ****     {
 2274              		.loc 1 964 5 is_stmt 1 view .LVU750
 964:Drivers/STM32H7xx_HAL_Driver/Src/stm32h7xx_hal_rcc.c ****     {
 2275              		.loc 1 964 26 is_stmt 0 view .LVU751
 2276 007c A269     		ldr	r2, [r4, #24]
 964:Drivers/STM32H7xx_HAL_Driver/Src/stm32h7xx_hal_rcc.c ****     {
 2277              		.loc 1 964 50 view .LVU752
 2278 007e 804B     		ldr	r3, .L218+4
 2279 0080 DB69     		ldr	r3, [r3, #28]
 964:Drivers/STM32H7xx_HAL_Driver/Src/stm32h7xx_hal_rcc.c ****     {
 2280              		.loc 1 964 59 view .LVU753
 2281 0082 03F4E063 		and	r3, r3, #1792
 964:Drivers/STM32H7xx_HAL_Driver/Src/stm32h7xx_hal_rcc.c ****     {
 2282              		.loc 1 964 7 view .LVU754
 2283 0086 9A42     		cmp	r2, r3
 2284 0088 05D9     		bls	.L186
 966:Drivers/STM32H7xx_HAL_Driver/Src/stm32h7xx_hal_rcc.c ****       MODIFY_REG(RCC->D2CFGR, RCC_D2CFGR_D2PPRE2, (RCC_ClkInitStruct->APB2CLKDivider));
 2285              		.loc 1 966 7 is_stmt 1 view .LVU755
 967:Drivers/STM32H7xx_HAL_Driver/Src/stm32h7xx_hal_rcc.c ****     }
 2286              		.loc 1 967 7 view .LVU756
 2287 008a 7D49     		ldr	r1, .L218+4
 2288 008c CB69     		ldr	r3, [r1, #28]
 2289 008e 23F4E063 		bic	r3, r3, #1792
 2290 0092 1A43     		orrs	r2, r2, r3
 2291 0094 CA61     		str	r2, [r1, #28]
 2292              	.L186:
 979:Drivers/STM32H7xx_HAL_Driver/Src/stm32h7xx_hal_rcc.c ****   {
 2293              		.loc 1 979 3 view .LVU757
 979:Drivers/STM32H7xx_HAL_Driver/Src/stm32h7xx_hal_rcc.c ****   {
 2294              		.loc 1 979 25 is_stmt 0 view .LVU758
 2295 0096 2368     		ldr	r3, [r4]
 979:Drivers/STM32H7xx_HAL_Driver/Src/stm32h7xx_hal_rcc.c ****   {
 2296              		.loc 1 979 5 view .LVU759
 2297 0098 13F0200F 		tst	r3, #32
 2298 009c 0CD0     		beq	.L187
 982:Drivers/STM32H7xx_HAL_Driver/Src/stm32h7xx_hal_rcc.c ****     {
 2299              		.loc 1 982 5 is_stmt 1 view .LVU760
 982:Drivers/STM32H7xx_HAL_Driver/Src/stm32h7xx_hal_rcc.c ****     {
 2300              		.loc 1 982 26 is_stmt 0 view .LVU761
ARM GAS  C:\Users\cinar\AppData\Local\Temp\ccnsnn81.s 			page 73


 2301 009e E269     		ldr	r2, [r4, #28]
 982:Drivers/STM32H7xx_HAL_Driver/Src/stm32h7xx_hal_rcc.c ****     {
 2302              		.loc 1 982 50 view .LVU762
 2303 00a0 774B     		ldr	r3, .L218+4
 2304 00a2 1B6A     		ldr	r3, [r3, #32]
 982:Drivers/STM32H7xx_HAL_Driver/Src/stm32h7xx_hal_rcc.c ****     {
 2305              		.loc 1 982 59 view .LVU763
 2306 00a4 03F07003 		and	r3, r3, #112
 982:Drivers/STM32H7xx_HAL_Driver/Src/stm32h7xx_hal_rcc.c ****     {
 2307              		.loc 1 982 7 view .LVU764
 2308 00a8 9A42     		cmp	r2, r3
 2309 00aa 05D9     		bls	.L187
 984:Drivers/STM32H7xx_HAL_Driver/Src/stm32h7xx_hal_rcc.c ****       MODIFY_REG(RCC->D3CFGR, RCC_D3CFGR_D3PPRE, (RCC_ClkInitStruct->APB4CLKDivider) );
 2310              		.loc 1 984 7 is_stmt 1 view .LVU765
 985:Drivers/STM32H7xx_HAL_Driver/Src/stm32h7xx_hal_rcc.c ****     }
 2311              		.loc 1 985 7 view .LVU766
 2312 00ac 7449     		ldr	r1, .L218+4
 2313 00ae 0B6A     		ldr	r3, [r1, #32]
 2314 00b0 23F07003 		bic	r3, r3, #112
 2315 00b4 1A43     		orrs	r2, r2, r3
 2316 00b6 0A62     		str	r2, [r1, #32]
 2317              	.L187:
 997:Drivers/STM32H7xx_HAL_Driver/Src/stm32h7xx_hal_rcc.c ****   {
 2318              		.loc 1 997 3 view .LVU767
 997:Drivers/STM32H7xx_HAL_Driver/Src/stm32h7xx_hal_rcc.c ****   {
 2319              		.loc 1 997 25 is_stmt 0 view .LVU768
 2320 00b8 2368     		ldr	r3, [r4]
 997:Drivers/STM32H7xx_HAL_Driver/Src/stm32h7xx_hal_rcc.c ****   {
 2321              		.loc 1 997 5 view .LVU769
 2322 00ba 13F0020F 		tst	r3, #2
 2323 00be 0CD0     		beq	.L188
1000:Drivers/STM32H7xx_HAL_Driver/Src/stm32h7xx_hal_rcc.c ****     {
 2324              		.loc 1 1000 5 is_stmt 1 view .LVU770
1000:Drivers/STM32H7xx_HAL_Driver/Src/stm32h7xx_hal_rcc.c ****     {
 2325              		.loc 1 1000 26 is_stmt 0 view .LVU771
 2326 00c0 E268     		ldr	r2, [r4, #12]
1000:Drivers/STM32H7xx_HAL_Driver/Src/stm32h7xx_hal_rcc.c ****     {
 2327              		.loc 1 1000 49 view .LVU772
 2328 00c2 6F4B     		ldr	r3, .L218+4
 2329 00c4 9B69     		ldr	r3, [r3, #24]
1000:Drivers/STM32H7xx_HAL_Driver/Src/stm32h7xx_hal_rcc.c ****     {
 2330              		.loc 1 1000 58 view .LVU773
 2331 00c6 03F00F03 		and	r3, r3, #15
1000:Drivers/STM32H7xx_HAL_Driver/Src/stm32h7xx_hal_rcc.c ****     {
 2332              		.loc 1 1000 7 view .LVU774
 2333 00ca 9A42     		cmp	r2, r3
 2334 00cc 05D9     		bls	.L188
1003:Drivers/STM32H7xx_HAL_Driver/Src/stm32h7xx_hal_rcc.c ****       MODIFY_REG(RCC->D1CFGR, RCC_D1CFGR_HPRE, RCC_ClkInitStruct->AHBCLKDivider);
 2335              		.loc 1 1003 7 is_stmt 1 view .LVU775
1004:Drivers/STM32H7xx_HAL_Driver/Src/stm32h7xx_hal_rcc.c ****     }
 2336              		.loc 1 1004 7 view .LVU776
 2337 00ce 6C49     		ldr	r1, .L218+4
 2338 00d0 8B69     		ldr	r3, [r1, #24]
 2339 00d2 23F00F03 		bic	r3, r3, #15
 2340 00d6 1A43     		orrs	r2, r2, r3
 2341 00d8 8A61     		str	r2, [r1, #24]
 2342              	.L188:
ARM GAS  C:\Users\cinar\AppData\Local\Temp\ccnsnn81.s 			page 74


1017:Drivers/STM32H7xx_HAL_Driver/Src/stm32h7xx_hal_rcc.c ****     {
 2343              		.loc 1 1017 5 view .LVU777
1017:Drivers/STM32H7xx_HAL_Driver/Src/stm32h7xx_hal_rcc.c ****     {
 2344              		.loc 1 1017 27 is_stmt 0 view .LVU778
 2345 00da 2368     		ldr	r3, [r4]
1017:Drivers/STM32H7xx_HAL_Driver/Src/stm32h7xx_hal_rcc.c ****     {
 2346              		.loc 1 1017 7 view .LVU779
 2347 00dc 13F0010F 		tst	r3, #1
 2348 00e0 41D0     		beq	.L189
1019:Drivers/STM32H7xx_HAL_Driver/Src/stm32h7xx_hal_rcc.c ****       assert_param(IS_RCC_SYSCLKSOURCE(RCC_ClkInitStruct->SYSCLKSource));
 2349              		.loc 1 1019 7 is_stmt 1 view .LVU780
1020:Drivers/STM32H7xx_HAL_Driver/Src/stm32h7xx_hal_rcc.c **** #if defined(RCC_D1CFGR_D1CPRE)
 2350              		.loc 1 1020 7 view .LVU781
1022:Drivers/STM32H7xx_HAL_Driver/Src/stm32h7xx_hal_rcc.c **** #else
 2351              		.loc 1 1022 7 view .LVU782
 2352 00e2 674A     		ldr	r2, .L218+4
 2353 00e4 9369     		ldr	r3, [r2, #24]
 2354 00e6 23F47063 		bic	r3, r3, #3840
 2355 00ea A168     		ldr	r1, [r4, #8]
 2356 00ec 0B43     		orrs	r3, r3, r1
 2357 00ee 9361     		str	r3, [r2, #24]
1027:Drivers/STM32H7xx_HAL_Driver/Src/stm32h7xx_hal_rcc.c ****       {
 2358              		.loc 1 1027 7 view .LVU783
1027:Drivers/STM32H7xx_HAL_Driver/Src/stm32h7xx_hal_rcc.c ****       {
 2359              		.loc 1 1027 27 is_stmt 0 view .LVU784
 2360 00f0 6368     		ldr	r3, [r4, #4]
1027:Drivers/STM32H7xx_HAL_Driver/Src/stm32h7xx_hal_rcc.c ****       {
 2361              		.loc 1 1027 9 view .LVU785
 2362 00f2 022B     		cmp	r3, #2
 2363 00f4 0AD0     		beq	.L214
1036:Drivers/STM32H7xx_HAL_Driver/Src/stm32h7xx_hal_rcc.c ****       {
 2364              		.loc 1 1036 12 is_stmt 1 view .LVU786
1036:Drivers/STM32H7xx_HAL_Driver/Src/stm32h7xx_hal_rcc.c ****       {
 2365              		.loc 1 1036 14 is_stmt 0 view .LVU787
 2366 00f6 032B     		cmp	r3, #3
 2367 00f8 27D0     		beq	.L215
1045:Drivers/STM32H7xx_HAL_Driver/Src/stm32h7xx_hal_rcc.c ****       {
 2368              		.loc 1 1045 12 is_stmt 1 view .LVU788
1045:Drivers/STM32H7xx_HAL_Driver/Src/stm32h7xx_hal_rcc.c ****       {
 2369              		.loc 1 1045 14 is_stmt 0 view .LVU789
 2370 00fa 012B     		cmp	r3, #1
 2371 00fc 2CD0     		beq	.L216
1057:Drivers/STM32H7xx_HAL_Driver/Src/stm32h7xx_hal_rcc.c ****         {
 2372              		.loc 1 1057 9 is_stmt 1 view .LVU790
1057:Drivers/STM32H7xx_HAL_Driver/Src/stm32h7xx_hal_rcc.c ****         {
 2373              		.loc 1 1057 12 is_stmt 0 view .LVU791
 2374 00fe 604A     		ldr	r2, .L218+4
 2375 0100 1268     		ldr	r2, [r2]
1057:Drivers/STM32H7xx_HAL_Driver/Src/stm32h7xx_hal_rcc.c ****         {
 2376              		.loc 1 1057 11 view .LVU792
 2377 0102 12F0040F 		tst	r2, #4
 2378 0106 06D1     		bne	.L191
1059:Drivers/STM32H7xx_HAL_Driver/Src/stm32h7xx_hal_rcc.c ****         }
 2379              		.loc 1 1059 18 view .LVU793
 2380 0108 0120     		movs	r0, #1
 2381              	.LVL176:
1059:Drivers/STM32H7xx_HAL_Driver/Src/stm32h7xx_hal_rcc.c ****         }
ARM GAS  C:\Users\cinar\AppData\Local\Temp\ccnsnn81.s 			page 75


 2382              		.loc 1 1059 18 view .LVU794
 2383 010a ADE0     		b	.L182
 2384              	.LVL177:
 2385              	.L214:
1030:Drivers/STM32H7xx_HAL_Driver/Src/stm32h7xx_hal_rcc.c ****         {
 2386              		.loc 1 1030 9 is_stmt 1 view .LVU795
1030:Drivers/STM32H7xx_HAL_Driver/Src/stm32h7xx_hal_rcc.c ****         {
 2387              		.loc 1 1030 12 is_stmt 0 view .LVU796
 2388 010c 1268     		ldr	r2, [r2]
1030:Drivers/STM32H7xx_HAL_Driver/Src/stm32h7xx_hal_rcc.c ****         {
 2389              		.loc 1 1030 11 view .LVU797
 2390 010e 12F4003F 		tst	r2, #131072
 2391 0112 00F0AE80 		beq	.L217
 2392              	.L191:
1062:Drivers/STM32H7xx_HAL_Driver/Src/stm32h7xx_hal_rcc.c **** 
 2393              		.loc 1 1062 7 is_stmt 1 view .LVU798
 2394 0116 5A49     		ldr	r1, .L218+4
 2395 0118 0A69     		ldr	r2, [r1, #16]
 2396 011a 22F00702 		bic	r2, r2, #7
 2397 011e 1343     		orrs	r3, r3, r2
 2398 0120 0B61     		str	r3, [r1, #16]
1065:Drivers/STM32H7xx_HAL_Driver/Src/stm32h7xx_hal_rcc.c **** 
 2399              		.loc 1 1065 7 view .LVU799
1065:Drivers/STM32H7xx_HAL_Driver/Src/stm32h7xx_hal_rcc.c **** 
 2400              		.loc 1 1065 19 is_stmt 0 view .LVU800
 2401 0122 FFF7FEFF 		bl	HAL_GetTick
 2402              	.LVL178:
1065:Drivers/STM32H7xx_HAL_Driver/Src/stm32h7xx_hal_rcc.c **** 
 2403              		.loc 1 1065 19 view .LVU801
 2404 0126 0646     		mov	r6, r0
 2405              	.LVL179:
1067:Drivers/STM32H7xx_HAL_Driver/Src/stm32h7xx_hal_rcc.c ****         {
 2406              		.loc 1 1067 9 is_stmt 1 view .LVU802
 2407              	.L194:
1067:Drivers/STM32H7xx_HAL_Driver/Src/stm32h7xx_hal_rcc.c ****         {
 2408              		.loc 1 1067 15 view .LVU803
1067:Drivers/STM32H7xx_HAL_Driver/Src/stm32h7xx_hal_rcc.c ****         {
 2409              		.loc 1 1067 16 is_stmt 0 view .LVU804
 2410 0128 554B     		ldr	r3, .L218+4
 2411 012a 1B69     		ldr	r3, [r3, #16]
 2412 012c 03F03803 		and	r3, r3, #56
1067:Drivers/STM32H7xx_HAL_Driver/Src/stm32h7xx_hal_rcc.c ****         {
 2413              		.loc 1 1067 68 view .LVU805
 2414 0130 6268     		ldr	r2, [r4, #4]
1067:Drivers/STM32H7xx_HAL_Driver/Src/stm32h7xx_hal_rcc.c ****         {
 2415              		.loc 1 1067 15 view .LVU806
 2416 0132 B3EBC20F 		cmp	r3, r2, lsl #3
 2417 0136 16D0     		beq	.L189
1069:Drivers/STM32H7xx_HAL_Driver/Src/stm32h7xx_hal_rcc.c ****           {
 2418              		.loc 1 1069 11 is_stmt 1 view .LVU807
1069:Drivers/STM32H7xx_HAL_Driver/Src/stm32h7xx_hal_rcc.c ****           {
 2419              		.loc 1 1069 15 is_stmt 0 view .LVU808
 2420 0138 FFF7FEFF 		bl	HAL_GetTick
 2421              	.LVL180:
1069:Drivers/STM32H7xx_HAL_Driver/Src/stm32h7xx_hal_rcc.c ****           {
 2422              		.loc 1 1069 29 view .LVU809
 2423 013c 801B     		subs	r0, r0, r6
ARM GAS  C:\Users\cinar\AppData\Local\Temp\ccnsnn81.s 			page 76


1069:Drivers/STM32H7xx_HAL_Driver/Src/stm32h7xx_hal_rcc.c ****           {
 2424              		.loc 1 1069 13 view .LVU810
 2425 013e 41F28833 		movw	r3, #5000
 2426 0142 9842     		cmp	r0, r3
 2427 0144 F0D9     		bls	.L194
1071:Drivers/STM32H7xx_HAL_Driver/Src/stm32h7xx_hal_rcc.c ****           }
 2428              		.loc 1 1071 20 view .LVU811
 2429 0146 0320     		movs	r0, #3
 2430 0148 8EE0     		b	.L182
 2431              	.LVL181:
 2432              	.L215:
1039:Drivers/STM32H7xx_HAL_Driver/Src/stm32h7xx_hal_rcc.c ****         {
 2433              		.loc 1 1039 9 is_stmt 1 view .LVU812
1039:Drivers/STM32H7xx_HAL_Driver/Src/stm32h7xx_hal_rcc.c ****         {
 2434              		.loc 1 1039 12 is_stmt 0 view .LVU813
 2435 014a 4D4A     		ldr	r2, .L218+4
 2436 014c 1268     		ldr	r2, [r2]
1039:Drivers/STM32H7xx_HAL_Driver/Src/stm32h7xx_hal_rcc.c ****         {
 2437              		.loc 1 1039 11 view .LVU814
 2438 014e 12F0007F 		tst	r2, #33554432
 2439 0152 E0D1     		bne	.L191
1041:Drivers/STM32H7xx_HAL_Driver/Src/stm32h7xx_hal_rcc.c ****         }
 2440              		.loc 1 1041 18 view .LVU815
 2441 0154 0120     		movs	r0, #1
 2442              	.LVL182:
1041:Drivers/STM32H7xx_HAL_Driver/Src/stm32h7xx_hal_rcc.c ****         }
 2443              		.loc 1 1041 18 view .LVU816
 2444 0156 87E0     		b	.L182
 2445              	.LVL183:
 2446              	.L216:
1048:Drivers/STM32H7xx_HAL_Driver/Src/stm32h7xx_hal_rcc.c ****         {
 2447              		.loc 1 1048 9 is_stmt 1 view .LVU817
1048:Drivers/STM32H7xx_HAL_Driver/Src/stm32h7xx_hal_rcc.c ****         {
 2448              		.loc 1 1048 12 is_stmt 0 view .LVU818
 2449 0158 494A     		ldr	r2, .L218+4
 2450 015a 1268     		ldr	r2, [r2]
1048:Drivers/STM32H7xx_HAL_Driver/Src/stm32h7xx_hal_rcc.c ****         {
 2451              		.loc 1 1048 11 view .LVU819
 2452 015c 12F4807F 		tst	r2, #256
 2453 0160 D9D1     		bne	.L191
1050:Drivers/STM32H7xx_HAL_Driver/Src/stm32h7xx_hal_rcc.c ****         }
 2454              		.loc 1 1050 18 view .LVU820
 2455 0162 0120     		movs	r0, #1
 2456              	.LVL184:
1050:Drivers/STM32H7xx_HAL_Driver/Src/stm32h7xx_hal_rcc.c ****         }
 2457              		.loc 1 1050 18 view .LVU821
 2458 0164 80E0     		b	.L182
 2459              	.L189:
1079:Drivers/STM32H7xx_HAL_Driver/Src/stm32h7xx_hal_rcc.c ****   {
 2460              		.loc 1 1079 3 is_stmt 1 view .LVU822
1079:Drivers/STM32H7xx_HAL_Driver/Src/stm32h7xx_hal_rcc.c ****   {
 2461              		.loc 1 1079 25 is_stmt 0 view .LVU823
 2462 0166 2368     		ldr	r3, [r4]
1079:Drivers/STM32H7xx_HAL_Driver/Src/stm32h7xx_hal_rcc.c ****   {
 2463              		.loc 1 1079 5 view .LVU824
 2464 0168 13F0020F 		tst	r3, #2
 2465 016c 0CD0     		beq	.L196
ARM GAS  C:\Users\cinar\AppData\Local\Temp\ccnsnn81.s 			page 77


1082:Drivers/STM32H7xx_HAL_Driver/Src/stm32h7xx_hal_rcc.c ****     {
 2466              		.loc 1 1082 5 is_stmt 1 view .LVU825
1082:Drivers/STM32H7xx_HAL_Driver/Src/stm32h7xx_hal_rcc.c ****     {
 2467              		.loc 1 1082 26 is_stmt 0 view .LVU826
 2468 016e E268     		ldr	r2, [r4, #12]
1082:Drivers/STM32H7xx_HAL_Driver/Src/stm32h7xx_hal_rcc.c ****     {
 2469              		.loc 1 1082 49 view .LVU827
 2470 0170 434B     		ldr	r3, .L218+4
 2471 0172 9B69     		ldr	r3, [r3, #24]
1082:Drivers/STM32H7xx_HAL_Driver/Src/stm32h7xx_hal_rcc.c ****     {
 2472              		.loc 1 1082 58 view .LVU828
 2473 0174 03F00F03 		and	r3, r3, #15
1082:Drivers/STM32H7xx_HAL_Driver/Src/stm32h7xx_hal_rcc.c ****     {
 2474              		.loc 1 1082 7 view .LVU829
 2475 0178 9A42     		cmp	r2, r3
 2476 017a 05D2     		bcs	.L196
1085:Drivers/STM32H7xx_HAL_Driver/Src/stm32h7xx_hal_rcc.c ****       MODIFY_REG(RCC->D1CFGR, RCC_D1CFGR_HPRE, RCC_ClkInitStruct->AHBCLKDivider);
 2477              		.loc 1 1085 7 is_stmt 1 view .LVU830
1086:Drivers/STM32H7xx_HAL_Driver/Src/stm32h7xx_hal_rcc.c ****     }
 2478              		.loc 1 1086 7 view .LVU831
 2479 017c 4049     		ldr	r1, .L218+4
 2480 017e 8B69     		ldr	r3, [r1, #24]
 2481 0180 23F00F03 		bic	r3, r3, #15
 2482 0184 1A43     		orrs	r2, r2, r3
 2483 0186 8A61     		str	r2, [r1, #24]
 2484              	.L196:
1099:Drivers/STM32H7xx_HAL_Driver/Src/stm32h7xx_hal_rcc.c ****   {
 2485              		.loc 1 1099 3 view .LVU832
1099:Drivers/STM32H7xx_HAL_Driver/Src/stm32h7xx_hal_rcc.c ****   {
 2486              		.loc 1 1099 17 is_stmt 0 view .LVU833
 2487 0188 3C4B     		ldr	r3, .L218
 2488 018a 1B68     		ldr	r3, [r3]
 2489 018c 03F00F03 		and	r3, r3, #15
1099:Drivers/STM32H7xx_HAL_Driver/Src/stm32h7xx_hal_rcc.c ****   {
 2490              		.loc 1 1099 5 view .LVU834
 2491 0190 AB42     		cmp	r3, r5
 2492 0192 0AD9     		bls	.L197
1102:Drivers/STM32H7xx_HAL_Driver/Src/stm32h7xx_hal_rcc.c **** 
 2493              		.loc 1 1102 5 is_stmt 1 view .LVU835
 2494 0194 394A     		ldr	r2, .L218
 2495 0196 1368     		ldr	r3, [r2]
 2496 0198 23F00F03 		bic	r3, r3, #15
 2497 019c 2B43     		orrs	r3, r3, r5
 2498 019e 1360     		str	r3, [r2]
1106:Drivers/STM32H7xx_HAL_Driver/Src/stm32h7xx_hal_rcc.c ****     {
 2499              		.loc 1 1106 5 view .LVU836
1106:Drivers/STM32H7xx_HAL_Driver/Src/stm32h7xx_hal_rcc.c ****     {
 2500              		.loc 1 1106 8 is_stmt 0 view .LVU837
 2501 01a0 1368     		ldr	r3, [r2]
 2502 01a2 03F00F03 		and	r3, r3, #15
1106:Drivers/STM32H7xx_HAL_Driver/Src/stm32h7xx_hal_rcc.c ****     {
 2503              		.loc 1 1106 7 view .LVU838
 2504 01a6 AB42     		cmp	r3, r5
 2505 01a8 65D1     		bne	.L209
 2506              	.L197:
1113:Drivers/STM32H7xx_HAL_Driver/Src/stm32h7xx_hal_rcc.c ****  {
 2507              		.loc 1 1113 2 is_stmt 1 view .LVU839
ARM GAS  C:\Users\cinar\AppData\Local\Temp\ccnsnn81.s 			page 78


1113:Drivers/STM32H7xx_HAL_Driver/Src/stm32h7xx_hal_rcc.c ****  {
 2508              		.loc 1 1113 24 is_stmt 0 view .LVU840
 2509 01aa 2368     		ldr	r3, [r4]
1113:Drivers/STM32H7xx_HAL_Driver/Src/stm32h7xx_hal_rcc.c ****  {
 2510              		.loc 1 1113 4 view .LVU841
 2511 01ac 13F0040F 		tst	r3, #4
 2512 01b0 0CD0     		beq	.L198
1116:Drivers/STM32H7xx_HAL_Driver/Src/stm32h7xx_hal_rcc.c ****    {
 2513              		.loc 1 1116 4 is_stmt 1 view .LVU842
1116:Drivers/STM32H7xx_HAL_Driver/Src/stm32h7xx_hal_rcc.c ****    {
 2514              		.loc 1 1116 25 is_stmt 0 view .LVU843
 2515 01b2 2269     		ldr	r2, [r4, #16]
1116:Drivers/STM32H7xx_HAL_Driver/Src/stm32h7xx_hal_rcc.c ****    {
 2516              		.loc 1 1116 49 view .LVU844
 2517 01b4 324B     		ldr	r3, .L218+4
 2518 01b6 9B69     		ldr	r3, [r3, #24]
1116:Drivers/STM32H7xx_HAL_Driver/Src/stm32h7xx_hal_rcc.c ****    {
 2519              		.loc 1 1116 58 view .LVU845
 2520 01b8 03F07003 		and	r3, r3, #112
1116:Drivers/STM32H7xx_HAL_Driver/Src/stm32h7xx_hal_rcc.c ****    {
 2521              		.loc 1 1116 6 view .LVU846
 2522 01bc 9A42     		cmp	r2, r3
 2523 01be 05D2     		bcs	.L198
1118:Drivers/STM32H7xx_HAL_Driver/Src/stm32h7xx_hal_rcc.c ****      MODIFY_REG(RCC->D1CFGR, RCC_D1CFGR_D1PPRE, RCC_ClkInitStruct->APB3CLKDivider);
 2524              		.loc 1 1118 6 is_stmt 1 view .LVU847
1119:Drivers/STM32H7xx_HAL_Driver/Src/stm32h7xx_hal_rcc.c ****    }
 2525              		.loc 1 1119 6 view .LVU848
 2526 01c0 2F49     		ldr	r1, .L218+4
 2527 01c2 8B69     		ldr	r3, [r1, #24]
 2528 01c4 23F07003 		bic	r3, r3, #112
 2529 01c8 1A43     		orrs	r2, r2, r3
 2530 01ca 8A61     		str	r2, [r1, #24]
 2531              	.L198:
1131:Drivers/STM32H7xx_HAL_Driver/Src/stm32h7xx_hal_rcc.c ****  {
 2532              		.loc 1 1131 2 view .LVU849
1131:Drivers/STM32H7xx_HAL_Driver/Src/stm32h7xx_hal_rcc.c ****  {
 2533              		.loc 1 1131 24 is_stmt 0 view .LVU850
 2534 01cc 2368     		ldr	r3, [r4]
1131:Drivers/STM32H7xx_HAL_Driver/Src/stm32h7xx_hal_rcc.c ****  {
 2535              		.loc 1 1131 4 view .LVU851
 2536 01ce 13F0080F 		tst	r3, #8
 2537 01d2 0CD0     		beq	.L199
1134:Drivers/STM32H7xx_HAL_Driver/Src/stm32h7xx_hal_rcc.c ****    {
 2538              		.loc 1 1134 4 is_stmt 1 view .LVU852
1134:Drivers/STM32H7xx_HAL_Driver/Src/stm32h7xx_hal_rcc.c ****    {
 2539              		.loc 1 1134 25 is_stmt 0 view .LVU853
 2540 01d4 6269     		ldr	r2, [r4, #20]
1134:Drivers/STM32H7xx_HAL_Driver/Src/stm32h7xx_hal_rcc.c ****    {
 2541              		.loc 1 1134 49 view .LVU854
 2542 01d6 2A4B     		ldr	r3, .L218+4
 2543 01d8 DB69     		ldr	r3, [r3, #28]
1134:Drivers/STM32H7xx_HAL_Driver/Src/stm32h7xx_hal_rcc.c ****    {
 2544              		.loc 1 1134 58 view .LVU855
 2545 01da 03F07003 		and	r3, r3, #112
1134:Drivers/STM32H7xx_HAL_Driver/Src/stm32h7xx_hal_rcc.c ****    {
 2546              		.loc 1 1134 6 view .LVU856
 2547 01de 9A42     		cmp	r2, r3
ARM GAS  C:\Users\cinar\AppData\Local\Temp\ccnsnn81.s 			page 79


 2548 01e0 05D2     		bcs	.L199
1136:Drivers/STM32H7xx_HAL_Driver/Src/stm32h7xx_hal_rcc.c ****      MODIFY_REG(RCC->D2CFGR, RCC_D2CFGR_D2PPRE1, (RCC_ClkInitStruct->APB1CLKDivider));
 2549              		.loc 1 1136 6 is_stmt 1 view .LVU857
1137:Drivers/STM32H7xx_HAL_Driver/Src/stm32h7xx_hal_rcc.c ****    }
 2550              		.loc 1 1137 6 view .LVU858
 2551 01e2 2749     		ldr	r1, .L218+4
 2552 01e4 CB69     		ldr	r3, [r1, #28]
 2553 01e6 23F07003 		bic	r3, r3, #112
 2554 01ea 1A43     		orrs	r2, r2, r3
 2555 01ec CA61     		str	r2, [r1, #28]
 2556              	.L199:
1149:Drivers/STM32H7xx_HAL_Driver/Src/stm32h7xx_hal_rcc.c ****  {
 2557              		.loc 1 1149 2 view .LVU859
1149:Drivers/STM32H7xx_HAL_Driver/Src/stm32h7xx_hal_rcc.c ****  {
 2558              		.loc 1 1149 24 is_stmt 0 view .LVU860
 2559 01ee 2368     		ldr	r3, [r4]
1149:Drivers/STM32H7xx_HAL_Driver/Src/stm32h7xx_hal_rcc.c ****  {
 2560              		.loc 1 1149 4 view .LVU861
 2561 01f0 13F0100F 		tst	r3, #16
 2562 01f4 0CD0     		beq	.L200
1152:Drivers/STM32H7xx_HAL_Driver/Src/stm32h7xx_hal_rcc.c ****    {
 2563              		.loc 1 1152 4 is_stmt 1 view .LVU862
1152:Drivers/STM32H7xx_HAL_Driver/Src/stm32h7xx_hal_rcc.c ****    {
 2564              		.loc 1 1152 25 is_stmt 0 view .LVU863
 2565 01f6 A269     		ldr	r2, [r4, #24]
1152:Drivers/STM32H7xx_HAL_Driver/Src/stm32h7xx_hal_rcc.c ****    {
 2566              		.loc 1 1152 49 view .LVU864
 2567 01f8 214B     		ldr	r3, .L218+4
 2568 01fa DB69     		ldr	r3, [r3, #28]
1152:Drivers/STM32H7xx_HAL_Driver/Src/stm32h7xx_hal_rcc.c ****    {
 2569              		.loc 1 1152 58 view .LVU865
 2570 01fc 03F4E063 		and	r3, r3, #1792
1152:Drivers/STM32H7xx_HAL_Driver/Src/stm32h7xx_hal_rcc.c ****    {
 2571              		.loc 1 1152 6 view .LVU866
 2572 0200 9A42     		cmp	r2, r3
 2573 0202 05D2     		bcs	.L200
1154:Drivers/STM32H7xx_HAL_Driver/Src/stm32h7xx_hal_rcc.c ****      MODIFY_REG(RCC->D2CFGR, RCC_D2CFGR_D2PPRE2, (RCC_ClkInitStruct->APB2CLKDivider));
 2574              		.loc 1 1154 6 is_stmt 1 view .LVU867
1155:Drivers/STM32H7xx_HAL_Driver/Src/stm32h7xx_hal_rcc.c ****    }
 2575              		.loc 1 1155 6 view .LVU868
 2576 0204 1E49     		ldr	r1, .L218+4
 2577 0206 CB69     		ldr	r3, [r1, #28]
 2578 0208 23F4E063 		bic	r3, r3, #1792
 2579 020c 1A43     		orrs	r2, r2, r3
 2580 020e CA61     		str	r2, [r1, #28]
 2581              	.L200:
1167:Drivers/STM32H7xx_HAL_Driver/Src/stm32h7xx_hal_rcc.c ****  {
 2582              		.loc 1 1167 2 view .LVU869
1167:Drivers/STM32H7xx_HAL_Driver/Src/stm32h7xx_hal_rcc.c ****  {
 2583              		.loc 1 1167 24 is_stmt 0 view .LVU870
 2584 0210 2368     		ldr	r3, [r4]
1167:Drivers/STM32H7xx_HAL_Driver/Src/stm32h7xx_hal_rcc.c ****  {
 2585              		.loc 1 1167 4 view .LVU871
 2586 0212 13F0200F 		tst	r3, #32
 2587 0216 0CD0     		beq	.L201
1170:Drivers/STM32H7xx_HAL_Driver/Src/stm32h7xx_hal_rcc.c ****    {
 2588              		.loc 1 1170 4 is_stmt 1 view .LVU872
ARM GAS  C:\Users\cinar\AppData\Local\Temp\ccnsnn81.s 			page 80


1170:Drivers/STM32H7xx_HAL_Driver/Src/stm32h7xx_hal_rcc.c ****    {
 2589              		.loc 1 1170 25 is_stmt 0 view .LVU873
 2590 0218 E269     		ldr	r2, [r4, #28]
1170:Drivers/STM32H7xx_HAL_Driver/Src/stm32h7xx_hal_rcc.c ****    {
 2591              		.loc 1 1170 49 view .LVU874
 2592 021a 194B     		ldr	r3, .L218+4
 2593 021c 1B6A     		ldr	r3, [r3, #32]
1170:Drivers/STM32H7xx_HAL_Driver/Src/stm32h7xx_hal_rcc.c ****    {
 2594              		.loc 1 1170 58 view .LVU875
 2595 021e 03F07003 		and	r3, r3, #112
1170:Drivers/STM32H7xx_HAL_Driver/Src/stm32h7xx_hal_rcc.c ****    {
 2596              		.loc 1 1170 6 view .LVU876
 2597 0222 9A42     		cmp	r2, r3
 2598 0224 05D2     		bcs	.L201
1172:Drivers/STM32H7xx_HAL_Driver/Src/stm32h7xx_hal_rcc.c ****      MODIFY_REG(RCC->D3CFGR, RCC_D3CFGR_D3PPRE, (RCC_ClkInitStruct->APB4CLKDivider) );
 2599              		.loc 1 1172 6 is_stmt 1 view .LVU877
1173:Drivers/STM32H7xx_HAL_Driver/Src/stm32h7xx_hal_rcc.c ****    }
 2600              		.loc 1 1173 6 view .LVU878
 2601 0226 1649     		ldr	r1, .L218+4
 2602 0228 0B6A     		ldr	r3, [r1, #32]
 2603 022a 23F07003 		bic	r3, r3, #112
 2604 022e 1A43     		orrs	r2, r2, r3
 2605 0230 0A62     		str	r2, [r1, #32]
 2606              	.L201:
1186:Drivers/STM32H7xx_HAL_Driver/Src/stm32h7xx_hal_rcc.c **** #else
 2607              		.loc 1 1186 3 view .LVU879
1186:Drivers/STM32H7xx_HAL_Driver/Src/stm32h7xx_hal_rcc.c **** #else
 2608              		.loc 1 1186 25 is_stmt 0 view .LVU880
 2609 0232 FFF7FEFF 		bl	HAL_RCC_GetSysClockFreq
 2610              	.LVL185:
1186:Drivers/STM32H7xx_HAL_Driver/Src/stm32h7xx_hal_rcc.c **** #else
 2611              		.loc 1 1186 77 view .LVU881
 2612 0236 1249     		ldr	r1, .L218+4
 2613 0238 8B69     		ldr	r3, [r1, #24]
1186:Drivers/STM32H7xx_HAL_Driver/Src/stm32h7xx_hal_rcc.c **** #else
 2614              		.loc 1 1186 106 view .LVU882
 2615 023a C3F30323 		ubfx	r3, r3, #8, #4
1186:Drivers/STM32H7xx_HAL_Driver/Src/stm32h7xx_hal_rcc.c **** #else
 2616              		.loc 1 1186 72 view .LVU883
 2617 023e 114A     		ldr	r2, .L218+8
 2618 0240 D35C     		ldrb	r3, [r2, r3]	@ zero_extendqisi2
1186:Drivers/STM32H7xx_HAL_Driver/Src/stm32h7xx_hal_rcc.c **** #else
 2619              		.loc 1 1186 133 view .LVU884
 2620 0242 03F01F03 		and	r3, r3, #31
1186:Drivers/STM32H7xx_HAL_Driver/Src/stm32h7xx_hal_rcc.c **** #else
 2621              		.loc 1 1186 23 view .LVU885
 2622 0246 D840     		lsrs	r0, r0, r3
 2623              	.LVL186:
1192:Drivers/STM32H7xx_HAL_Driver/Src/stm32h7xx_hal_rcc.c **** #else
 2624              		.loc 1 1192 3 is_stmt 1 view .LVU886
1192:Drivers/STM32H7xx_HAL_Driver/Src/stm32h7xx_hal_rcc.c **** #else
 2625              		.loc 1 1192 66 is_stmt 0 view .LVU887
 2626 0248 8B69     		ldr	r3, [r1, #24]
1192:Drivers/STM32H7xx_HAL_Driver/Src/stm32h7xx_hal_rcc.c **** #else
 2627              		.loc 1 1192 93 view .LVU888
 2628 024a 03F00F03 		and	r3, r3, #15
1192:Drivers/STM32H7xx_HAL_Driver/Src/stm32h7xx_hal_rcc.c **** #else
ARM GAS  C:\Users\cinar\AppData\Local\Temp\ccnsnn81.s 			page 81


 2629              		.loc 1 1192 61 view .LVU889
 2630 024e D35C     		ldrb	r3, [r2, r3]	@ zero_extendqisi2
1192:Drivers/STM32H7xx_HAL_Driver/Src/stm32h7xx_hal_rcc.c **** #else
 2631              		.loc 1 1192 118 view .LVU890
 2632 0250 03F01F03 		and	r3, r3, #31
1192:Drivers/STM32H7xx_HAL_Driver/Src/stm32h7xx_hal_rcc.c **** #else
 2633              		.loc 1 1192 40 view .LVU891
 2634 0254 20FA03F3 		lsr	r3, r0, r3
1192:Drivers/STM32H7xx_HAL_Driver/Src/stm32h7xx_hal_rcc.c **** #else
 2635              		.loc 1 1192 17 view .LVU892
 2636 0258 0B4A     		ldr	r2, .L218+12
 2637 025a 1360     		str	r3, [r2]
1200:Drivers/STM32H7xx_HAL_Driver/Src/stm32h7xx_hal_rcc.c **** #endif /* DUAL_CORE && CORE_CM4 */
 2638              		.loc 1 1200 3 is_stmt 1 view .LVU893
1200:Drivers/STM32H7xx_HAL_Driver/Src/stm32h7xx_hal_rcc.c **** #endif /* DUAL_CORE && CORE_CM4 */
 2639              		.loc 1 1200 19 is_stmt 0 view .LVU894
 2640 025c 0B4B     		ldr	r3, .L218+16
 2641 025e 1860     		str	r0, [r3]
1204:Drivers/STM32H7xx_HAL_Driver/Src/stm32h7xx_hal_rcc.c **** 
 2642              		.loc 1 1204 3 is_stmt 1 view .LVU895
1204:Drivers/STM32H7xx_HAL_Driver/Src/stm32h7xx_hal_rcc.c **** 
 2643              		.loc 1 1204 15 is_stmt 0 view .LVU896
 2644 0260 0B4B     		ldr	r3, .L218+20
 2645 0262 1868     		ldr	r0, [r3]
 2646              	.LVL187:
1204:Drivers/STM32H7xx_HAL_Driver/Src/stm32h7xx_hal_rcc.c **** 
 2647              		.loc 1 1204 15 view .LVU897
 2648 0264 FFF7FEFF 		bl	HAL_InitTick
 2649              	.LVL188:
1206:Drivers/STM32H7xx_HAL_Driver/Src/stm32h7xx_hal_rcc.c **** }
 2650              		.loc 1 1206 3 is_stmt 1 view .LVU898
 2651              	.L182:
1207:Drivers/STM32H7xx_HAL_Driver/Src/stm32h7xx_hal_rcc.c **** 
 2652              		.loc 1 1207 1 is_stmt 0 view .LVU899
 2653 0268 70BD     		pop	{r4, r5, r6, pc}
 2654              	.LVL189:
 2655              	.L202:
 2656              	.LCFI13:
 2657              		.cfi_def_cfa_offset 0
 2658              		.cfi_restore 4
 2659              		.cfi_restore 5
 2660              		.cfi_restore 6
 2661              		.cfi_restore 14
 898:Drivers/STM32H7xx_HAL_Driver/Src/stm32h7xx_hal_rcc.c ****   }
 2662              		.loc 1 898 12 view .LVU900
 2663 026a 0120     		movs	r0, #1
 2664              	.LVL190:
1207:Drivers/STM32H7xx_HAL_Driver/Src/stm32h7xx_hal_rcc.c **** 
 2665              		.loc 1 1207 1 view .LVU901
 2666 026c 7047     		bx	lr
 2667              	.LVL191:
 2668              	.L203:
 2669              	.LCFI14:
 2670              		.cfi_def_cfa_offset 16
 2671              		.cfi_offset 4, -16
 2672              		.cfi_offset 5, -12
 2673              		.cfi_offset 6, -8
ARM GAS  C:\Users\cinar\AppData\Local\Temp\ccnsnn81.s 			page 82


 2674              		.cfi_offset 14, -4
 919:Drivers/STM32H7xx_HAL_Driver/Src/stm32h7xx_hal_rcc.c ****     }
 2675              		.loc 1 919 14 view .LVU902
 2676 026e 0120     		movs	r0, #1
 2677              	.LVL192:
 919:Drivers/STM32H7xx_HAL_Driver/Src/stm32h7xx_hal_rcc.c ****     }
 2678              		.loc 1 919 14 view .LVU903
 2679 0270 FAE7     		b	.L182
 2680              	.LVL193:
 2681              	.L217:
1032:Drivers/STM32H7xx_HAL_Driver/Src/stm32h7xx_hal_rcc.c ****         }
 2682              		.loc 1 1032 18 view .LVU904
 2683 0272 0120     		movs	r0, #1
 2684              	.LVL194:
1032:Drivers/STM32H7xx_HAL_Driver/Src/stm32h7xx_hal_rcc.c ****         }
 2685              		.loc 1 1032 18 view .LVU905
 2686 0274 F8E7     		b	.L182
 2687              	.L209:
1108:Drivers/STM32H7xx_HAL_Driver/Src/stm32h7xx_hal_rcc.c ****     }
 2688              		.loc 1 1108 14 view .LVU906
 2689 0276 0120     		movs	r0, #1
 2690 0278 F6E7     		b	.L182
 2691              	.L219:
 2692 027a 00BF     		.align	2
 2693              	.L218:
 2694 027c 00200052 		.word	1375739904
 2695 0280 00440258 		.word	1476543488
 2696 0284 00000000 		.word	D1CorePrescTable
 2697 0288 00000000 		.word	SystemD2Clock
 2698 028c 00000000 		.word	SystemCoreClock
 2699 0290 00000000 		.word	uwTickPrio
 2700              		.cfi_endproc
 2701              	.LFE146:
 2703              		.section	.text.HAL_RCC_GetHCLKFreq,"ax",%progbits
 2704              		.align	1
 2705              		.global	HAL_RCC_GetHCLKFreq
 2706              		.syntax unified
 2707              		.thumb
 2708              		.thumb_func
 2709              		.fpu fpv5-d16
 2711              	HAL_RCC_GetHCLKFreq:
 2712              	.LFB151:
1441:Drivers/STM32H7xx_HAL_Driver/Src/stm32h7xx_hal_rcc.c **** 
1442:Drivers/STM32H7xx_HAL_Driver/Src/stm32h7xx_hal_rcc.c **** 
1443:Drivers/STM32H7xx_HAL_Driver/Src/stm32h7xx_hal_rcc.c **** /**
1444:Drivers/STM32H7xx_HAL_Driver/Src/stm32h7xx_hal_rcc.c ****   * @brief  Returns the HCLK frequency
1445:Drivers/STM32H7xx_HAL_Driver/Src/stm32h7xx_hal_rcc.c ****   * @note   Each time HCLK changes, this function must be called to update the
1446:Drivers/STM32H7xx_HAL_Driver/Src/stm32h7xx_hal_rcc.c ****   *         right HCLK value. Otherwise, any configuration based on this function will be incorrect
1447:Drivers/STM32H7xx_HAL_Driver/Src/stm32h7xx_hal_rcc.c ****   *
1448:Drivers/STM32H7xx_HAL_Driver/Src/stm32h7xx_hal_rcc.c ****   * @note   The SystemD2Clock CMSIS variable is used to store System domain2 Clock Frequency
1449:Drivers/STM32H7xx_HAL_Driver/Src/stm32h7xx_hal_rcc.c ****   *         and updated within this function
1450:Drivers/STM32H7xx_HAL_Driver/Src/stm32h7xx_hal_rcc.c ****   * @retval HCLK frequency
1451:Drivers/STM32H7xx_HAL_Driver/Src/stm32h7xx_hal_rcc.c ****   */
1452:Drivers/STM32H7xx_HAL_Driver/Src/stm32h7xx_hal_rcc.c **** uint32_t HAL_RCC_GetHCLKFreq(void)
1453:Drivers/STM32H7xx_HAL_Driver/Src/stm32h7xx_hal_rcc.c **** {
 2713              		.loc 1 1453 1 is_stmt 1 view -0
 2714              		.cfi_startproc
ARM GAS  C:\Users\cinar\AppData\Local\Temp\ccnsnn81.s 			page 83


 2715              		@ args = 0, pretend = 0, frame = 0
 2716              		@ frame_needed = 0, uses_anonymous_args = 0
 2717 0000 08B5     		push	{r3, lr}
 2718              	.LCFI15:
 2719              		.cfi_def_cfa_offset 8
 2720              		.cfi_offset 3, -8
 2721              		.cfi_offset 14, -4
1454:Drivers/STM32H7xx_HAL_Driver/Src/stm32h7xx_hal_rcc.c **** uint32_t common_system_clock;
 2722              		.loc 1 1454 1 view .LVU908
1455:Drivers/STM32H7xx_HAL_Driver/Src/stm32h7xx_hal_rcc.c **** 
1456:Drivers/STM32H7xx_HAL_Driver/Src/stm32h7xx_hal_rcc.c **** #if defined(RCC_D1CFGR_D1CPRE)
1457:Drivers/STM32H7xx_HAL_Driver/Src/stm32h7xx_hal_rcc.c ****   common_system_clock = HAL_RCC_GetSysClockFreq() >> (D1CorePrescTable[(RCC->D1CFGR & RCC_D1CFGR_D1
 2723              		.loc 1 1457 3 view .LVU909
 2724              		.loc 1 1457 25 is_stmt 0 view .LVU910
 2725 0002 FFF7FEFF 		bl	HAL_RCC_GetSysClockFreq
 2726              	.LVL195:
 2727              		.loc 1 1457 76 view .LVU911
 2728 0006 0B4A     		ldr	r2, .L222
 2729 0008 9369     		ldr	r3, [r2, #24]
 2730              		.loc 1 1457 105 view .LVU912
 2731 000a C3F30323 		ubfx	r3, r3, #8, #4
 2732              		.loc 1 1457 71 view .LVU913
 2733 000e 0A49     		ldr	r1, .L222+4
 2734 0010 CB5C     		ldrb	r3, [r1, r3]	@ zero_extendqisi2
 2735              		.loc 1 1457 131 view .LVU914
 2736 0012 03F01F03 		and	r3, r3, #31
 2737              		.loc 1 1457 23 view .LVU915
 2738 0016 20FA03F3 		lsr	r3, r0, r3
 2739              	.LVL196:
1458:Drivers/STM32H7xx_HAL_Driver/Src/stm32h7xx_hal_rcc.c **** #else
1459:Drivers/STM32H7xx_HAL_Driver/Src/stm32h7xx_hal_rcc.c ****   common_system_clock = HAL_RCC_GetSysClockFreq() >> (D1CorePrescTable[(RCC->CDCFGR1 & RCC_CDCFGR1_
1460:Drivers/STM32H7xx_HAL_Driver/Src/stm32h7xx_hal_rcc.c **** #endif
1461:Drivers/STM32H7xx_HAL_Driver/Src/stm32h7xx_hal_rcc.c **** 
1462:Drivers/STM32H7xx_HAL_Driver/Src/stm32h7xx_hal_rcc.c **** #if defined(RCC_D1CFGR_HPRE)
1463:Drivers/STM32H7xx_HAL_Driver/Src/stm32h7xx_hal_rcc.c ****   SystemD2Clock = (common_system_clock >> ((D1CorePrescTable[(RCC->D1CFGR & RCC_D1CFGR_HPRE)>> RCC_
 2740              		.loc 1 1463 3 is_stmt 1 view .LVU916
 2741              		.loc 1 1463 66 is_stmt 0 view .LVU917
 2742 001a 9269     		ldr	r2, [r2, #24]
 2743              		.loc 1 1463 93 view .LVU918
 2744 001c 02F00F02 		and	r2, r2, #15
 2745              		.loc 1 1463 61 view .LVU919
 2746 0020 885C     		ldrb	r0, [r1, r2]	@ zero_extendqisi2
 2747              		.loc 1 1463 118 view .LVU920
 2748 0022 00F01F00 		and	r0, r0, #31
 2749              		.loc 1 1463 40 view .LVU921
 2750 0026 23FA00F0 		lsr	r0, r3, r0
 2751              		.loc 1 1463 17 view .LVU922
 2752 002a 044A     		ldr	r2, .L222+8
 2753 002c 1060     		str	r0, [r2]
1464:Drivers/STM32H7xx_HAL_Driver/Src/stm32h7xx_hal_rcc.c **** #else
1465:Drivers/STM32H7xx_HAL_Driver/Src/stm32h7xx_hal_rcc.c ****   SystemD2Clock = (common_system_clock >> ((D1CorePrescTable[(RCC->CDCFGR1 & RCC_CDCFGR1_HPRE)>> RC
1466:Drivers/STM32H7xx_HAL_Driver/Src/stm32h7xx_hal_rcc.c **** #endif
1467:Drivers/STM32H7xx_HAL_Driver/Src/stm32h7xx_hal_rcc.c **** 
1468:Drivers/STM32H7xx_HAL_Driver/Src/stm32h7xx_hal_rcc.c **** #if defined(DUAL_CORE) && defined(CORE_CM4)
1469:Drivers/STM32H7xx_HAL_Driver/Src/stm32h7xx_hal_rcc.c ****   SystemCoreClock = SystemD2Clock;
1470:Drivers/STM32H7xx_HAL_Driver/Src/stm32h7xx_hal_rcc.c **** #else
1471:Drivers/STM32H7xx_HAL_Driver/Src/stm32h7xx_hal_rcc.c ****   SystemCoreClock = common_system_clock;
ARM GAS  C:\Users\cinar\AppData\Local\Temp\ccnsnn81.s 			page 84


 2754              		.loc 1 1471 3 is_stmt 1 view .LVU923
 2755              		.loc 1 1471 19 is_stmt 0 view .LVU924
 2756 002e 044A     		ldr	r2, .L222+12
 2757 0030 1360     		str	r3, [r2]
1472:Drivers/STM32H7xx_HAL_Driver/Src/stm32h7xx_hal_rcc.c **** #endif /* DUAL_CORE && CORE_CM4 */
1473:Drivers/STM32H7xx_HAL_Driver/Src/stm32h7xx_hal_rcc.c **** 
1474:Drivers/STM32H7xx_HAL_Driver/Src/stm32h7xx_hal_rcc.c ****   return SystemD2Clock;
 2758              		.loc 1 1474 3 is_stmt 1 view .LVU925
1475:Drivers/STM32H7xx_HAL_Driver/Src/stm32h7xx_hal_rcc.c **** }
 2759              		.loc 1 1475 1 is_stmt 0 view .LVU926
 2760 0032 08BD     		pop	{r3, pc}
 2761              	.LVL197:
 2762              	.L223:
 2763              		.loc 1 1475 1 view .LVU927
 2764              		.align	2
 2765              	.L222:
 2766 0034 00440258 		.word	1476543488
 2767 0038 00000000 		.word	D1CorePrescTable
 2768 003c 00000000 		.word	SystemD2Clock
 2769 0040 00000000 		.word	SystemCoreClock
 2770              		.cfi_endproc
 2771              	.LFE151:
 2773              		.section	.text.HAL_RCC_GetPCLK1Freq,"ax",%progbits
 2774              		.align	1
 2775              		.global	HAL_RCC_GetPCLK1Freq
 2776              		.syntax unified
 2777              		.thumb
 2778              		.thumb_func
 2779              		.fpu fpv5-d16
 2781              	HAL_RCC_GetPCLK1Freq:
 2782              	.LFB152:
1476:Drivers/STM32H7xx_HAL_Driver/Src/stm32h7xx_hal_rcc.c **** 
1477:Drivers/STM32H7xx_HAL_Driver/Src/stm32h7xx_hal_rcc.c **** 
1478:Drivers/STM32H7xx_HAL_Driver/Src/stm32h7xx_hal_rcc.c **** /**
1479:Drivers/STM32H7xx_HAL_Driver/Src/stm32h7xx_hal_rcc.c ****   * @brief  Returns the PCLK1 frequency
1480:Drivers/STM32H7xx_HAL_Driver/Src/stm32h7xx_hal_rcc.c ****   * @note   Each time PCLK1 changes, this function must be called to update the
1481:Drivers/STM32H7xx_HAL_Driver/Src/stm32h7xx_hal_rcc.c ****   *         right PCLK1 value. Otherwise, any configuration based on this function will be incorrec
1482:Drivers/STM32H7xx_HAL_Driver/Src/stm32h7xx_hal_rcc.c ****   * @retval PCLK1 frequency
1483:Drivers/STM32H7xx_HAL_Driver/Src/stm32h7xx_hal_rcc.c ****   */
1484:Drivers/STM32H7xx_HAL_Driver/Src/stm32h7xx_hal_rcc.c **** uint32_t HAL_RCC_GetPCLK1Freq(void)
1485:Drivers/STM32H7xx_HAL_Driver/Src/stm32h7xx_hal_rcc.c **** {
 2783              		.loc 1 1485 1 is_stmt 1 view -0
 2784              		.cfi_startproc
 2785              		@ args = 0, pretend = 0, frame = 0
 2786              		@ frame_needed = 0, uses_anonymous_args = 0
 2787 0000 08B5     		push	{r3, lr}
 2788              	.LCFI16:
 2789              		.cfi_def_cfa_offset 8
 2790              		.cfi_offset 3, -8
 2791              		.cfi_offset 14, -4
1486:Drivers/STM32H7xx_HAL_Driver/Src/stm32h7xx_hal_rcc.c **** #if defined (RCC_D2CFGR_D2PPRE1)
1487:Drivers/STM32H7xx_HAL_Driver/Src/stm32h7xx_hal_rcc.c ****   /* Get HCLK source and Compute PCLK1 frequency ---------------------------*/
1488:Drivers/STM32H7xx_HAL_Driver/Src/stm32h7xx_hal_rcc.c ****   return (HAL_RCC_GetHCLKFreq() >> ((D1CorePrescTable[(RCC->D2CFGR & RCC_D2CFGR_D2PPRE1)>> RCC_D2CF
 2792              		.loc 1 1488 3 view .LVU929
 2793              		.loc 1 1488 11 is_stmt 0 view .LVU930
 2794 0002 FFF7FEFF 		bl	HAL_RCC_GetHCLKFreq
 2795              	.LVL198:
ARM GAS  C:\Users\cinar\AppData\Local\Temp\ccnsnn81.s 			page 85


 2796              		.loc 1 1488 59 view .LVU931
 2797 0006 054B     		ldr	r3, .L226
 2798 0008 DB69     		ldr	r3, [r3, #28]
 2799              		.loc 1 1488 89 view .LVU932
 2800 000a C3F30213 		ubfx	r3, r3, #4, #3
 2801              		.loc 1 1488 54 view .LVU933
 2802 000e 044A     		ldr	r2, .L226+4
 2803 0010 D35C     		ldrb	r3, [r2, r3]	@ zero_extendqisi2
 2804              		.loc 1 1488 117 view .LVU934
 2805 0012 03F01F03 		and	r3, r3, #31
1489:Drivers/STM32H7xx_HAL_Driver/Src/stm32h7xx_hal_rcc.c **** #else
1490:Drivers/STM32H7xx_HAL_Driver/Src/stm32h7xx_hal_rcc.c ****  /* Get HCLK source and Compute PCLK1 frequency ---------------------------*/
1491:Drivers/STM32H7xx_HAL_Driver/Src/stm32h7xx_hal_rcc.c ****   return (HAL_RCC_GetHCLKFreq() >> ((D1CorePrescTable[(RCC->CDCFGR2 & RCC_CDCFGR2_CDPPRE1)>> RCC_CD
1492:Drivers/STM32H7xx_HAL_Driver/Src/stm32h7xx_hal_rcc.c **** #endif
1493:Drivers/STM32H7xx_HAL_Driver/Src/stm32h7xx_hal_rcc.c **** }
 2806              		.loc 1 1493 1 view .LVU935
 2807 0016 D840     		lsrs	r0, r0, r3
 2808 0018 08BD     		pop	{r3, pc}
 2809              	.L227:
 2810 001a 00BF     		.align	2
 2811              	.L226:
 2812 001c 00440258 		.word	1476543488
 2813 0020 00000000 		.word	D1CorePrescTable
 2814              		.cfi_endproc
 2815              	.LFE152:
 2817              		.section	.text.HAL_RCC_GetPCLK2Freq,"ax",%progbits
 2818              		.align	1
 2819              		.global	HAL_RCC_GetPCLK2Freq
 2820              		.syntax unified
 2821              		.thumb
 2822              		.thumb_func
 2823              		.fpu fpv5-d16
 2825              	HAL_RCC_GetPCLK2Freq:
 2826              	.LFB153:
1494:Drivers/STM32H7xx_HAL_Driver/Src/stm32h7xx_hal_rcc.c **** 
1495:Drivers/STM32H7xx_HAL_Driver/Src/stm32h7xx_hal_rcc.c **** 
1496:Drivers/STM32H7xx_HAL_Driver/Src/stm32h7xx_hal_rcc.c **** /**
1497:Drivers/STM32H7xx_HAL_Driver/Src/stm32h7xx_hal_rcc.c ****   * @brief  Returns the PCLK2 frequency
1498:Drivers/STM32H7xx_HAL_Driver/Src/stm32h7xx_hal_rcc.c ****   * @note   Each time PCLK2 changes, this function must be called to update the
1499:Drivers/STM32H7xx_HAL_Driver/Src/stm32h7xx_hal_rcc.c ****   *         right PCLK2 value. Otherwise, any configuration based on this function will be incorrec
1500:Drivers/STM32H7xx_HAL_Driver/Src/stm32h7xx_hal_rcc.c ****   * @retval PCLK1 frequency
1501:Drivers/STM32H7xx_HAL_Driver/Src/stm32h7xx_hal_rcc.c ****   */
1502:Drivers/STM32H7xx_HAL_Driver/Src/stm32h7xx_hal_rcc.c **** uint32_t HAL_RCC_GetPCLK2Freq(void)
1503:Drivers/STM32H7xx_HAL_Driver/Src/stm32h7xx_hal_rcc.c **** {
 2827              		.loc 1 1503 1 is_stmt 1 view -0
 2828              		.cfi_startproc
 2829              		@ args = 0, pretend = 0, frame = 0
 2830              		@ frame_needed = 0, uses_anonymous_args = 0
 2831 0000 08B5     		push	{r3, lr}
 2832              	.LCFI17:
 2833              		.cfi_def_cfa_offset 8
 2834              		.cfi_offset 3, -8
 2835              		.cfi_offset 14, -4
1504:Drivers/STM32H7xx_HAL_Driver/Src/stm32h7xx_hal_rcc.c ****   /* Get HCLK source and Compute PCLK1 frequency ---------------------------*/
1505:Drivers/STM32H7xx_HAL_Driver/Src/stm32h7xx_hal_rcc.c **** #if defined(RCC_D2CFGR_D2PPRE2)
1506:Drivers/STM32H7xx_HAL_Driver/Src/stm32h7xx_hal_rcc.c ****   return (HAL_RCC_GetHCLKFreq() >> ((D1CorePrescTable[(RCC->D2CFGR & RCC_D2CFGR_D2PPRE2)>> RCC_D2CF
 2836              		.loc 1 1506 3 view .LVU937
ARM GAS  C:\Users\cinar\AppData\Local\Temp\ccnsnn81.s 			page 86


 2837              		.loc 1 1506 11 is_stmt 0 view .LVU938
 2838 0002 FFF7FEFF 		bl	HAL_RCC_GetHCLKFreq
 2839              	.LVL199:
 2840              		.loc 1 1506 59 view .LVU939
 2841 0006 054B     		ldr	r3, .L230
 2842 0008 DB69     		ldr	r3, [r3, #28]
 2843              		.loc 1 1506 89 view .LVU940
 2844 000a C3F30223 		ubfx	r3, r3, #8, #3
 2845              		.loc 1 1506 54 view .LVU941
 2846 000e 044A     		ldr	r2, .L230+4
 2847 0010 D35C     		ldrb	r3, [r2, r3]	@ zero_extendqisi2
 2848              		.loc 1 1506 117 view .LVU942
 2849 0012 03F01F03 		and	r3, r3, #31
1507:Drivers/STM32H7xx_HAL_Driver/Src/stm32h7xx_hal_rcc.c **** #else
1508:Drivers/STM32H7xx_HAL_Driver/Src/stm32h7xx_hal_rcc.c ****   return (HAL_RCC_GetHCLKFreq() >> ((D1CorePrescTable[(RCC->CDCFGR2 & RCC_CDCFGR2_CDPPRE2)>> RCC_CD
1509:Drivers/STM32H7xx_HAL_Driver/Src/stm32h7xx_hal_rcc.c **** #endif
1510:Drivers/STM32H7xx_HAL_Driver/Src/stm32h7xx_hal_rcc.c **** }
 2850              		.loc 1 1510 1 view .LVU943
 2851 0016 D840     		lsrs	r0, r0, r3
 2852 0018 08BD     		pop	{r3, pc}
 2853              	.L231:
 2854 001a 00BF     		.align	2
 2855              	.L230:
 2856 001c 00440258 		.word	1476543488
 2857 0020 00000000 		.word	D1CorePrescTable
 2858              		.cfi_endproc
 2859              	.LFE153:
 2861              		.section	.text.HAL_RCC_GetOscConfig,"ax",%progbits
 2862              		.align	1
 2863              		.global	HAL_RCC_GetOscConfig
 2864              		.syntax unified
 2865              		.thumb
 2866              		.thumb_func
 2867              		.fpu fpv5-d16
 2869              	HAL_RCC_GetOscConfig:
 2870              	.LVL200:
 2871              	.LFB154:
1511:Drivers/STM32H7xx_HAL_Driver/Src/stm32h7xx_hal_rcc.c **** 
1512:Drivers/STM32H7xx_HAL_Driver/Src/stm32h7xx_hal_rcc.c **** /**
1513:Drivers/STM32H7xx_HAL_Driver/Src/stm32h7xx_hal_rcc.c ****   * @brief  Configures the RCC_OscInitStruct according to the internal
1514:Drivers/STM32H7xx_HAL_Driver/Src/stm32h7xx_hal_rcc.c ****   * RCC configuration registers.
1515:Drivers/STM32H7xx_HAL_Driver/Src/stm32h7xx_hal_rcc.c ****   * @param  RCC_OscInitStruct: pointer to an RCC_OscInitTypeDef structure that
1516:Drivers/STM32H7xx_HAL_Driver/Src/stm32h7xx_hal_rcc.c ****   * will be configured.
1517:Drivers/STM32H7xx_HAL_Driver/Src/stm32h7xx_hal_rcc.c ****   * @retval None
1518:Drivers/STM32H7xx_HAL_Driver/Src/stm32h7xx_hal_rcc.c ****   */
1519:Drivers/STM32H7xx_HAL_Driver/Src/stm32h7xx_hal_rcc.c **** void HAL_RCC_GetOscConfig(RCC_OscInitTypeDef  *RCC_OscInitStruct)
1520:Drivers/STM32H7xx_HAL_Driver/Src/stm32h7xx_hal_rcc.c **** {
 2872              		.loc 1 1520 1 is_stmt 1 view -0
 2873              		.cfi_startproc
 2874              		@ args = 0, pretend = 0, frame = 0
 2875              		@ frame_needed = 0, uses_anonymous_args = 0
 2876              		@ link register save eliminated.
1521:Drivers/STM32H7xx_HAL_Driver/Src/stm32h7xx_hal_rcc.c ****   /* Set all possible values for the Oscillator type parameter ---------------*/
1522:Drivers/STM32H7xx_HAL_Driver/Src/stm32h7xx_hal_rcc.c ****   RCC_OscInitStruct->OscillatorType = RCC_OSCILLATORTYPE_HSE | RCC_OSCILLATORTYPE_HSI | RCC_OSCILLA
 2877              		.loc 1 1522 3 view .LVU945
 2878              		.loc 1 1522 37 is_stmt 0 view .LVU946
 2879 0000 3F23     		movs	r3, #63
ARM GAS  C:\Users\cinar\AppData\Local\Temp\ccnsnn81.s 			page 87


 2880 0002 0360     		str	r3, [r0]
1523:Drivers/STM32H7xx_HAL_Driver/Src/stm32h7xx_hal_rcc.c ****                                       RCC_OSCILLATORTYPE_LSE | RCC_OSCILLATORTYPE_LSI| RCC_OSCILLAT
1524:Drivers/STM32H7xx_HAL_Driver/Src/stm32h7xx_hal_rcc.c **** 
1525:Drivers/STM32H7xx_HAL_Driver/Src/stm32h7xx_hal_rcc.c ****   /* Get the HSE configuration -----------------------------------------------*/
1526:Drivers/STM32H7xx_HAL_Driver/Src/stm32h7xx_hal_rcc.c **** #if defined(RCC_CR_HSEEXT)
1527:Drivers/STM32H7xx_HAL_Driver/Src/stm32h7xx_hal_rcc.c ****   if((RCC->CR &(RCC_CR_HSEBYP | RCC_CR_HSEEXT)) == RCC_CR_HSEBYP)
1528:Drivers/STM32H7xx_HAL_Driver/Src/stm32h7xx_hal_rcc.c ****   {
1529:Drivers/STM32H7xx_HAL_Driver/Src/stm32h7xx_hal_rcc.c ****     RCC_OscInitStruct->HSEState = RCC_HSE_BYPASS;
1530:Drivers/STM32H7xx_HAL_Driver/Src/stm32h7xx_hal_rcc.c ****   }
1531:Drivers/STM32H7xx_HAL_Driver/Src/stm32h7xx_hal_rcc.c ****   else if((RCC->CR &(RCC_CR_HSEBYP | RCC_CR_HSEEXT)) == (RCC_CR_HSEBYP | RCC_CR_HSEEXT))
1532:Drivers/STM32H7xx_HAL_Driver/Src/stm32h7xx_hal_rcc.c ****   {
1533:Drivers/STM32H7xx_HAL_Driver/Src/stm32h7xx_hal_rcc.c ****     RCC_OscInitStruct->HSEState = RCC_HSE_BYPASS_DIGITAL;
1534:Drivers/STM32H7xx_HAL_Driver/Src/stm32h7xx_hal_rcc.c ****   }
1535:Drivers/STM32H7xx_HAL_Driver/Src/stm32h7xx_hal_rcc.c ****   else if((RCC->CR &RCC_CR_HSEON) == RCC_CR_HSEON)
1536:Drivers/STM32H7xx_HAL_Driver/Src/stm32h7xx_hal_rcc.c ****   {
1537:Drivers/STM32H7xx_HAL_Driver/Src/stm32h7xx_hal_rcc.c ****     RCC_OscInitStruct->HSEState = RCC_HSE_ON;
1538:Drivers/STM32H7xx_HAL_Driver/Src/stm32h7xx_hal_rcc.c ****   }
1539:Drivers/STM32H7xx_HAL_Driver/Src/stm32h7xx_hal_rcc.c ****   else
1540:Drivers/STM32H7xx_HAL_Driver/Src/stm32h7xx_hal_rcc.c ****   {
1541:Drivers/STM32H7xx_HAL_Driver/Src/stm32h7xx_hal_rcc.c ****     RCC_OscInitStruct->HSEState = RCC_HSE_OFF;
1542:Drivers/STM32H7xx_HAL_Driver/Src/stm32h7xx_hal_rcc.c ****   }
1543:Drivers/STM32H7xx_HAL_Driver/Src/stm32h7xx_hal_rcc.c **** #else
1544:Drivers/STM32H7xx_HAL_Driver/Src/stm32h7xx_hal_rcc.c ****   if((RCC->CR &RCC_CR_HSEBYP) == RCC_CR_HSEBYP)
 2881              		.loc 1 1544 3 is_stmt 1 view .LVU947
 2882              		.loc 1 1544 10 is_stmt 0 view .LVU948
 2883 0004 444B     		ldr	r3, .L249
 2884 0006 1B68     		ldr	r3, [r3]
 2885              		.loc 1 1544 5 view .LVU949
 2886 0008 13F4802F 		tst	r3, #262144
 2887 000c 5ED0     		beq	.L233
1545:Drivers/STM32H7xx_HAL_Driver/Src/stm32h7xx_hal_rcc.c ****   {
1546:Drivers/STM32H7xx_HAL_Driver/Src/stm32h7xx_hal_rcc.c ****     RCC_OscInitStruct->HSEState = RCC_HSE_BYPASS;
 2888              		.loc 1 1546 5 is_stmt 1 view .LVU950
 2889              		.loc 1 1546 33 is_stmt 0 view .LVU951
 2890 000e 4FF4A023 		mov	r3, #327680
 2891 0012 4360     		str	r3, [r0, #4]
 2892              	.L234:
1547:Drivers/STM32H7xx_HAL_Driver/Src/stm32h7xx_hal_rcc.c ****   }
1548:Drivers/STM32H7xx_HAL_Driver/Src/stm32h7xx_hal_rcc.c ****   else if((RCC->CR &RCC_CR_HSEON) == RCC_CR_HSEON)
1549:Drivers/STM32H7xx_HAL_Driver/Src/stm32h7xx_hal_rcc.c ****   {
1550:Drivers/STM32H7xx_HAL_Driver/Src/stm32h7xx_hal_rcc.c ****     RCC_OscInitStruct->HSEState = RCC_HSE_ON;
1551:Drivers/STM32H7xx_HAL_Driver/Src/stm32h7xx_hal_rcc.c ****   }
1552:Drivers/STM32H7xx_HAL_Driver/Src/stm32h7xx_hal_rcc.c ****   else
1553:Drivers/STM32H7xx_HAL_Driver/Src/stm32h7xx_hal_rcc.c ****   {
1554:Drivers/STM32H7xx_HAL_Driver/Src/stm32h7xx_hal_rcc.c ****     RCC_OscInitStruct->HSEState = RCC_HSE_OFF;
1555:Drivers/STM32H7xx_HAL_Driver/Src/stm32h7xx_hal_rcc.c ****   }
1556:Drivers/STM32H7xx_HAL_Driver/Src/stm32h7xx_hal_rcc.c **** #endif /* RCC_CR_HSEEXT */
1557:Drivers/STM32H7xx_HAL_Driver/Src/stm32h7xx_hal_rcc.c **** 
1558:Drivers/STM32H7xx_HAL_Driver/Src/stm32h7xx_hal_rcc.c ****    /* Get the CSI configuration -----------------------------------------------*/
1559:Drivers/STM32H7xx_HAL_Driver/Src/stm32h7xx_hal_rcc.c ****   if((RCC->CR &RCC_CR_CSION) == RCC_CR_CSION)
 2893              		.loc 1 1559 3 is_stmt 1 view .LVU952
 2894              		.loc 1 1559 10 is_stmt 0 view .LVU953
 2895 0014 404B     		ldr	r3, .L249
 2896 0016 1B68     		ldr	r3, [r3]
 2897              		.loc 1 1559 5 view .LVU954
 2898 0018 13F0800F 		tst	r3, #128
 2899 001c 62D0     		beq	.L236
ARM GAS  C:\Users\cinar\AppData\Local\Temp\ccnsnn81.s 			page 88


1560:Drivers/STM32H7xx_HAL_Driver/Src/stm32h7xx_hal_rcc.c ****   {
1561:Drivers/STM32H7xx_HAL_Driver/Src/stm32h7xx_hal_rcc.c ****     RCC_OscInitStruct->CSIState = RCC_CSI_ON;
 2900              		.loc 1 1561 5 is_stmt 1 view .LVU955
 2901              		.loc 1 1561 33 is_stmt 0 view .LVU956
 2902 001e 8023     		movs	r3, #128
 2903 0020 C361     		str	r3, [r0, #28]
 2904              	.L237:
1562:Drivers/STM32H7xx_HAL_Driver/Src/stm32h7xx_hal_rcc.c ****   }
1563:Drivers/STM32H7xx_HAL_Driver/Src/stm32h7xx_hal_rcc.c ****   else
1564:Drivers/STM32H7xx_HAL_Driver/Src/stm32h7xx_hal_rcc.c ****   {
1565:Drivers/STM32H7xx_HAL_Driver/Src/stm32h7xx_hal_rcc.c ****     RCC_OscInitStruct->CSIState = RCC_CSI_OFF;
1566:Drivers/STM32H7xx_HAL_Driver/Src/stm32h7xx_hal_rcc.c ****   }
1567:Drivers/STM32H7xx_HAL_Driver/Src/stm32h7xx_hal_rcc.c **** 
1568:Drivers/STM32H7xx_HAL_Driver/Src/stm32h7xx_hal_rcc.c **** #if defined(RCC_VER_X)
1569:Drivers/STM32H7xx_HAL_Driver/Src/stm32h7xx_hal_rcc.c ****   if(HAL_GetREVID() <= REV_ID_Y)
1570:Drivers/STM32H7xx_HAL_Driver/Src/stm32h7xx_hal_rcc.c ****   {
1571:Drivers/STM32H7xx_HAL_Driver/Src/stm32h7xx_hal_rcc.c ****     RCC_OscInitStruct->CSICalibrationValue = (uint32_t)(READ_BIT(RCC->HSICFGR, HAL_RCC_REV_Y_CSITRI
1572:Drivers/STM32H7xx_HAL_Driver/Src/stm32h7xx_hal_rcc.c ****   }
1573:Drivers/STM32H7xx_HAL_Driver/Src/stm32h7xx_hal_rcc.c ****   else
1574:Drivers/STM32H7xx_HAL_Driver/Src/stm32h7xx_hal_rcc.c ****   {
1575:Drivers/STM32H7xx_HAL_Driver/Src/stm32h7xx_hal_rcc.c ****     RCC_OscInitStruct->CSICalibrationValue = (uint32_t)(READ_BIT(RCC->CSICFGR, RCC_CSICFGR_CSITRIM)
1576:Drivers/STM32H7xx_HAL_Driver/Src/stm32h7xx_hal_rcc.c ****   }
1577:Drivers/STM32H7xx_HAL_Driver/Src/stm32h7xx_hal_rcc.c **** #else
1578:Drivers/STM32H7xx_HAL_Driver/Src/stm32h7xx_hal_rcc.c ****  RCC_OscInitStruct->CSICalibrationValue = (uint32_t)(READ_BIT(RCC->CSICFGR, RCC_CSICFGR_CSITRIM) >>
 2905              		.loc 1 1578 2 is_stmt 1 view .LVU957
 2906              		.loc 1 1578 54 is_stmt 0 view .LVU958
 2907 0022 3D4A     		ldr	r2, .L249
 2908 0024 D368     		ldr	r3, [r2, #12]
 2909              		.loc 1 1578 43 view .LVU959
 2910 0026 C3F30563 		ubfx	r3, r3, #24, #6
 2911              		.loc 1 1578 41 view .LVU960
 2912 002a 0362     		str	r3, [r0, #32]
1579:Drivers/STM32H7xx_HAL_Driver/Src/stm32h7xx_hal_rcc.c **** #endif /*RCC_VER_X*/
1580:Drivers/STM32H7xx_HAL_Driver/Src/stm32h7xx_hal_rcc.c **** 
1581:Drivers/STM32H7xx_HAL_Driver/Src/stm32h7xx_hal_rcc.c ****   /* Get the HSI configuration -----------------------------------------------*/
1582:Drivers/STM32H7xx_HAL_Driver/Src/stm32h7xx_hal_rcc.c ****   if((RCC->CR &RCC_CR_HSION) == RCC_CR_HSION)
 2913              		.loc 1 1582 3 is_stmt 1 view .LVU961
 2914              		.loc 1 1582 10 is_stmt 0 view .LVU962
 2915 002c 1368     		ldr	r3, [r2]
 2916              		.loc 1 1582 5 view .LVU963
 2917 002e 13F0010F 		tst	r3, #1
 2918 0032 5AD0     		beq	.L238
1583:Drivers/STM32H7xx_HAL_Driver/Src/stm32h7xx_hal_rcc.c ****   {
1584:Drivers/STM32H7xx_HAL_Driver/Src/stm32h7xx_hal_rcc.c ****     RCC_OscInitStruct->HSIState = RCC_HSI_ON;
 2919              		.loc 1 1584 5 is_stmt 1 view .LVU964
 2920              		.loc 1 1584 33 is_stmt 0 view .LVU965
 2921 0034 0123     		movs	r3, #1
 2922 0036 C360     		str	r3, [r0, #12]
 2923              	.L239:
1585:Drivers/STM32H7xx_HAL_Driver/Src/stm32h7xx_hal_rcc.c ****   }
1586:Drivers/STM32H7xx_HAL_Driver/Src/stm32h7xx_hal_rcc.c ****   else
1587:Drivers/STM32H7xx_HAL_Driver/Src/stm32h7xx_hal_rcc.c ****   {
1588:Drivers/STM32H7xx_HAL_Driver/Src/stm32h7xx_hal_rcc.c ****     RCC_OscInitStruct->HSIState = RCC_HSI_OFF;
1589:Drivers/STM32H7xx_HAL_Driver/Src/stm32h7xx_hal_rcc.c ****   }
1590:Drivers/STM32H7xx_HAL_Driver/Src/stm32h7xx_hal_rcc.c **** 
1591:Drivers/STM32H7xx_HAL_Driver/Src/stm32h7xx_hal_rcc.c **** #if defined(RCC_VER_X)
1592:Drivers/STM32H7xx_HAL_Driver/Src/stm32h7xx_hal_rcc.c ****   if(HAL_GetREVID() <= REV_ID_Y)
ARM GAS  C:\Users\cinar\AppData\Local\Temp\ccnsnn81.s 			page 89


1593:Drivers/STM32H7xx_HAL_Driver/Src/stm32h7xx_hal_rcc.c ****   {
1594:Drivers/STM32H7xx_HAL_Driver/Src/stm32h7xx_hal_rcc.c ****     RCC_OscInitStruct->HSICalibrationValue = (uint32_t)(READ_BIT(RCC->HSICFGR, HAL_RCC_REV_Y_HSITRI
1595:Drivers/STM32H7xx_HAL_Driver/Src/stm32h7xx_hal_rcc.c ****   }
1596:Drivers/STM32H7xx_HAL_Driver/Src/stm32h7xx_hal_rcc.c ****   else
1597:Drivers/STM32H7xx_HAL_Driver/Src/stm32h7xx_hal_rcc.c ****   {
1598:Drivers/STM32H7xx_HAL_Driver/Src/stm32h7xx_hal_rcc.c ****     RCC_OscInitStruct->HSICalibrationValue = (uint32_t)(READ_BIT(RCC->HSICFGR, RCC_HSICFGR_HSITRIM)
1599:Drivers/STM32H7xx_HAL_Driver/Src/stm32h7xx_hal_rcc.c ****   }
1600:Drivers/STM32H7xx_HAL_Driver/Src/stm32h7xx_hal_rcc.c **** #else
1601:Drivers/STM32H7xx_HAL_Driver/Src/stm32h7xx_hal_rcc.c ****     RCC_OscInitStruct->HSICalibrationValue = (uint32_t)(READ_BIT(RCC->HSICFGR, RCC_HSICFGR_HSITRIM)
 2924              		.loc 1 1601 5 is_stmt 1 view .LVU966
 2925              		.loc 1 1601 57 is_stmt 0 view .LVU967
 2926 0038 374A     		ldr	r2, .L249
 2927 003a 5368     		ldr	r3, [r2, #4]
 2928              		.loc 1 1601 46 view .LVU968
 2929 003c C3F30663 		ubfx	r3, r3, #24, #7
 2930              		.loc 1 1601 44 view .LVU969
 2931 0040 0361     		str	r3, [r0, #16]
1602:Drivers/STM32H7xx_HAL_Driver/Src/stm32h7xx_hal_rcc.c **** #endif /*RCC_VER_X*/
1603:Drivers/STM32H7xx_HAL_Driver/Src/stm32h7xx_hal_rcc.c **** 
1604:Drivers/STM32H7xx_HAL_Driver/Src/stm32h7xx_hal_rcc.c ****   /* Get the LSE configuration -----------------------------------------------*/
1605:Drivers/STM32H7xx_HAL_Driver/Src/stm32h7xx_hal_rcc.c **** #if defined(RCC_BDCR_LSEEXT)
1606:Drivers/STM32H7xx_HAL_Driver/Src/stm32h7xx_hal_rcc.c ****   if((RCC->BDCR &(RCC_BDCR_LSEBYP|RCC_BDCR_LSEEXT)) == RCC_BDCR_LSEBYP)
1607:Drivers/STM32H7xx_HAL_Driver/Src/stm32h7xx_hal_rcc.c ****   {
1608:Drivers/STM32H7xx_HAL_Driver/Src/stm32h7xx_hal_rcc.c ****     RCC_OscInitStruct->LSEState = RCC_LSE_BYPASS;
1609:Drivers/STM32H7xx_HAL_Driver/Src/stm32h7xx_hal_rcc.c ****   }
1610:Drivers/STM32H7xx_HAL_Driver/Src/stm32h7xx_hal_rcc.c ****   else if((RCC->BDCR &(RCC_BDCR_LSEBYP|RCC_BDCR_LSEEXT)) == (RCC_BDCR_LSEBYP|RCC_BDCR_LSEEXT))
1611:Drivers/STM32H7xx_HAL_Driver/Src/stm32h7xx_hal_rcc.c ****   {
1612:Drivers/STM32H7xx_HAL_Driver/Src/stm32h7xx_hal_rcc.c ****     RCC_OscInitStruct->LSEState = RCC_LSE_BYPASS_DIGITAL;
1613:Drivers/STM32H7xx_HAL_Driver/Src/stm32h7xx_hal_rcc.c ****   }
1614:Drivers/STM32H7xx_HAL_Driver/Src/stm32h7xx_hal_rcc.c ****   else if((RCC->BDCR &RCC_BDCR_LSEON) == RCC_BDCR_LSEON)
1615:Drivers/STM32H7xx_HAL_Driver/Src/stm32h7xx_hal_rcc.c ****   {
1616:Drivers/STM32H7xx_HAL_Driver/Src/stm32h7xx_hal_rcc.c ****     RCC_OscInitStruct->LSEState = RCC_LSE_ON;
1617:Drivers/STM32H7xx_HAL_Driver/Src/stm32h7xx_hal_rcc.c ****   }
1618:Drivers/STM32H7xx_HAL_Driver/Src/stm32h7xx_hal_rcc.c ****   else
1619:Drivers/STM32H7xx_HAL_Driver/Src/stm32h7xx_hal_rcc.c ****   {
1620:Drivers/STM32H7xx_HAL_Driver/Src/stm32h7xx_hal_rcc.c ****     RCC_OscInitStruct->LSEState = RCC_LSE_OFF;
1621:Drivers/STM32H7xx_HAL_Driver/Src/stm32h7xx_hal_rcc.c ****   }
1622:Drivers/STM32H7xx_HAL_Driver/Src/stm32h7xx_hal_rcc.c **** #else
1623:Drivers/STM32H7xx_HAL_Driver/Src/stm32h7xx_hal_rcc.c ****   if((RCC->BDCR &RCC_BDCR_LSEBYP) == RCC_BDCR_LSEBYP)
 2932              		.loc 1 1623 3 is_stmt 1 view .LVU970
 2933              		.loc 1 1623 10 is_stmt 0 view .LVU971
 2934 0042 136F     		ldr	r3, [r2, #112]
 2935              		.loc 1 1623 5 view .LVU972
 2936 0044 13F0040F 		tst	r3, #4
 2937 0048 52D0     		beq	.L240
1624:Drivers/STM32H7xx_HAL_Driver/Src/stm32h7xx_hal_rcc.c ****   {
1625:Drivers/STM32H7xx_HAL_Driver/Src/stm32h7xx_hal_rcc.c ****     RCC_OscInitStruct->LSEState = RCC_LSE_BYPASS;
 2938              		.loc 1 1625 5 is_stmt 1 view .LVU973
 2939              		.loc 1 1625 33 is_stmt 0 view .LVU974
 2940 004a 0523     		movs	r3, #5
 2941 004c 8360     		str	r3, [r0, #8]
 2942              	.L241:
1626:Drivers/STM32H7xx_HAL_Driver/Src/stm32h7xx_hal_rcc.c ****   }
1627:Drivers/STM32H7xx_HAL_Driver/Src/stm32h7xx_hal_rcc.c ****   else if((RCC->BDCR &RCC_BDCR_LSEON) == RCC_BDCR_LSEON)
1628:Drivers/STM32H7xx_HAL_Driver/Src/stm32h7xx_hal_rcc.c ****   {
1629:Drivers/STM32H7xx_HAL_Driver/Src/stm32h7xx_hal_rcc.c ****     RCC_OscInitStruct->LSEState = RCC_LSE_ON;
1630:Drivers/STM32H7xx_HAL_Driver/Src/stm32h7xx_hal_rcc.c ****   }
ARM GAS  C:\Users\cinar\AppData\Local\Temp\ccnsnn81.s 			page 90


1631:Drivers/STM32H7xx_HAL_Driver/Src/stm32h7xx_hal_rcc.c ****   else
1632:Drivers/STM32H7xx_HAL_Driver/Src/stm32h7xx_hal_rcc.c ****   {
1633:Drivers/STM32H7xx_HAL_Driver/Src/stm32h7xx_hal_rcc.c ****     RCC_OscInitStruct->LSEState = RCC_LSE_OFF;
1634:Drivers/STM32H7xx_HAL_Driver/Src/stm32h7xx_hal_rcc.c ****   }
1635:Drivers/STM32H7xx_HAL_Driver/Src/stm32h7xx_hal_rcc.c **** #endif /* RCC_BDCR_LSEEXT */
1636:Drivers/STM32H7xx_HAL_Driver/Src/stm32h7xx_hal_rcc.c **** 
1637:Drivers/STM32H7xx_HAL_Driver/Src/stm32h7xx_hal_rcc.c ****   /* Get the LSI configuration -----------------------------------------------*/
1638:Drivers/STM32H7xx_HAL_Driver/Src/stm32h7xx_hal_rcc.c ****   if((RCC->CSR &RCC_CSR_LSION) == RCC_CSR_LSION)
 2943              		.loc 1 1638 3 is_stmt 1 view .LVU975
 2944              		.loc 1 1638 10 is_stmt 0 view .LVU976
 2945 004e 324B     		ldr	r3, .L249
 2946 0050 5B6F     		ldr	r3, [r3, #116]
 2947              		.loc 1 1638 5 view .LVU977
 2948 0052 13F0010F 		tst	r3, #1
 2949 0056 56D0     		beq	.L243
1639:Drivers/STM32H7xx_HAL_Driver/Src/stm32h7xx_hal_rcc.c ****   {
1640:Drivers/STM32H7xx_HAL_Driver/Src/stm32h7xx_hal_rcc.c ****     RCC_OscInitStruct->LSIState = RCC_LSI_ON;
 2950              		.loc 1 1640 5 is_stmt 1 view .LVU978
 2951              		.loc 1 1640 33 is_stmt 0 view .LVU979
 2952 0058 0123     		movs	r3, #1
 2953 005a 4361     		str	r3, [r0, #20]
 2954              	.L244:
1641:Drivers/STM32H7xx_HAL_Driver/Src/stm32h7xx_hal_rcc.c ****   }
1642:Drivers/STM32H7xx_HAL_Driver/Src/stm32h7xx_hal_rcc.c ****   else
1643:Drivers/STM32H7xx_HAL_Driver/Src/stm32h7xx_hal_rcc.c ****   {
1644:Drivers/STM32H7xx_HAL_Driver/Src/stm32h7xx_hal_rcc.c ****     RCC_OscInitStruct->LSIState = RCC_LSI_OFF;
1645:Drivers/STM32H7xx_HAL_Driver/Src/stm32h7xx_hal_rcc.c ****   }
1646:Drivers/STM32H7xx_HAL_Driver/Src/stm32h7xx_hal_rcc.c **** 
1647:Drivers/STM32H7xx_HAL_Driver/Src/stm32h7xx_hal_rcc.c ****   /* Get the HSI48 configuration ---------------------------------------------*/
1648:Drivers/STM32H7xx_HAL_Driver/Src/stm32h7xx_hal_rcc.c ****   if((RCC->CR & RCC_CR_HSI48ON) == RCC_CR_HSI48ON)
 2955              		.loc 1 1648 3 is_stmt 1 view .LVU980
 2956              		.loc 1 1648 10 is_stmt 0 view .LVU981
 2957 005c 2E4B     		ldr	r3, .L249
 2958 005e 1B68     		ldr	r3, [r3]
 2959              		.loc 1 1648 5 view .LVU982
 2960 0060 13F4805F 		tst	r3, #4096
 2961 0064 52D0     		beq	.L245
1649:Drivers/STM32H7xx_HAL_Driver/Src/stm32h7xx_hal_rcc.c ****   {
1650:Drivers/STM32H7xx_HAL_Driver/Src/stm32h7xx_hal_rcc.c ****     RCC_OscInitStruct->HSI48State = RCC_HSI48_ON;
 2962              		.loc 1 1650 5 is_stmt 1 view .LVU983
 2963              		.loc 1 1650 35 is_stmt 0 view .LVU984
 2964 0066 0123     		movs	r3, #1
 2965 0068 8361     		str	r3, [r0, #24]
 2966              	.L246:
1651:Drivers/STM32H7xx_HAL_Driver/Src/stm32h7xx_hal_rcc.c ****   }
1652:Drivers/STM32H7xx_HAL_Driver/Src/stm32h7xx_hal_rcc.c ****   else
1653:Drivers/STM32H7xx_HAL_Driver/Src/stm32h7xx_hal_rcc.c ****   {
1654:Drivers/STM32H7xx_HAL_Driver/Src/stm32h7xx_hal_rcc.c ****     RCC_OscInitStruct->HSI48State = RCC_HSI48_OFF;
1655:Drivers/STM32H7xx_HAL_Driver/Src/stm32h7xx_hal_rcc.c ****   }
1656:Drivers/STM32H7xx_HAL_Driver/Src/stm32h7xx_hal_rcc.c **** 
1657:Drivers/STM32H7xx_HAL_Driver/Src/stm32h7xx_hal_rcc.c ****   /* Get the PLL configuration -----------------------------------------------*/
1658:Drivers/STM32H7xx_HAL_Driver/Src/stm32h7xx_hal_rcc.c ****   if((RCC->CR &RCC_CR_PLLON) == RCC_CR_PLLON)
 2967              		.loc 1 1658 3 is_stmt 1 view .LVU985
 2968              		.loc 1 1658 10 is_stmt 0 view .LVU986
 2969 006a 2B4B     		ldr	r3, .L249
 2970 006c 1B68     		ldr	r3, [r3]
 2971              		.loc 1 1658 5 view .LVU987
ARM GAS  C:\Users\cinar\AppData\Local\Temp\ccnsnn81.s 			page 91


 2972 006e 13F0807F 		tst	r3, #16777216
 2973 0072 4ED0     		beq	.L247
1659:Drivers/STM32H7xx_HAL_Driver/Src/stm32h7xx_hal_rcc.c ****   {
1660:Drivers/STM32H7xx_HAL_Driver/Src/stm32h7xx_hal_rcc.c ****     RCC_OscInitStruct->PLL.PLLState = RCC_PLL_ON;
 2974              		.loc 1 1660 5 is_stmt 1 view .LVU988
 2975              		.loc 1 1660 37 is_stmt 0 view .LVU989
 2976 0074 0223     		movs	r3, #2
 2977 0076 4362     		str	r3, [r0, #36]
 2978              	.L248:
1661:Drivers/STM32H7xx_HAL_Driver/Src/stm32h7xx_hal_rcc.c ****   }
1662:Drivers/STM32H7xx_HAL_Driver/Src/stm32h7xx_hal_rcc.c ****   else
1663:Drivers/STM32H7xx_HAL_Driver/Src/stm32h7xx_hal_rcc.c ****   {
1664:Drivers/STM32H7xx_HAL_Driver/Src/stm32h7xx_hal_rcc.c ****     RCC_OscInitStruct->PLL.PLLState = RCC_PLL_OFF;
1665:Drivers/STM32H7xx_HAL_Driver/Src/stm32h7xx_hal_rcc.c ****   }
1666:Drivers/STM32H7xx_HAL_Driver/Src/stm32h7xx_hal_rcc.c ****   RCC_OscInitStruct->PLL.PLLSource = (uint32_t)(RCC->PLLCKSELR & RCC_PLLCKSELR_PLLSRC);
 2979              		.loc 1 1666 3 is_stmt 1 view .LVU990
 2980              		.loc 1 1666 52 is_stmt 0 view .LVU991
 2981 0078 274B     		ldr	r3, .L249
 2982 007a 9A6A     		ldr	r2, [r3, #40]
 2983              		.loc 1 1666 38 view .LVU992
 2984 007c 02F00302 		and	r2, r2, #3
 2985              		.loc 1 1666 36 view .LVU993
 2986 0080 8262     		str	r2, [r0, #40]
1667:Drivers/STM32H7xx_HAL_Driver/Src/stm32h7xx_hal_rcc.c ****   RCC_OscInitStruct->PLL.PLLM = (uint32_t)((RCC->PLLCKSELR & RCC_PLLCKSELR_DIVM1)>> RCC_PLLCKSELR_D
 2987              		.loc 1 1667 3 is_stmt 1 view .LVU994
 2988              		.loc 1 1667 48 is_stmt 0 view .LVU995
 2989 0082 9A6A     		ldr	r2, [r3, #40]
 2990              		.loc 1 1667 33 view .LVU996
 2991 0084 C2F30512 		ubfx	r2, r2, #4, #6
 2992              		.loc 1 1667 31 view .LVU997
 2993 0088 C262     		str	r2, [r0, #44]
1668:Drivers/STM32H7xx_HAL_Driver/Src/stm32h7xx_hal_rcc.c ****   RCC_OscInitStruct->PLL.PLLN = (uint32_t)((RCC->PLL1DIVR & RCC_PLL1DIVR_N1) >> RCC_PLL1DIVR_N1_Pos
 2994              		.loc 1 1668 3 is_stmt 1 view .LVU998
 2995              		.loc 1 1668 48 is_stmt 0 view .LVU999
 2996 008a 1A6B     		ldr	r2, [r3, #48]
 2997              		.loc 1 1668 33 view .LVU1000
 2998 008c C2F30802 		ubfx	r2, r2, #0, #9
 2999              		.loc 1 1668 101 view .LVU1001
 3000 0090 0132     		adds	r2, r2, #1
 3001              		.loc 1 1668 31 view .LVU1002
 3002 0092 0263     		str	r2, [r0, #48]
1669:Drivers/STM32H7xx_HAL_Driver/Src/stm32h7xx_hal_rcc.c ****   RCC_OscInitStruct->PLL.PLLR = (uint32_t)((RCC->PLL1DIVR & RCC_PLL1DIVR_R1) >> RCC_PLL1DIVR_R1_Pos
 3003              		.loc 1 1669 3 is_stmt 1 view .LVU1003
 3004              		.loc 1 1669 48 is_stmt 0 view .LVU1004
 3005 0094 1A6B     		ldr	r2, [r3, #48]
 3006              		.loc 1 1669 33 view .LVU1005
 3007 0096 C2F30662 		ubfx	r2, r2, #24, #7
 3008              		.loc 1 1669 101 view .LVU1006
 3009 009a 0132     		adds	r2, r2, #1
 3010              		.loc 1 1669 31 view .LVU1007
 3011 009c C263     		str	r2, [r0, #60]
1670:Drivers/STM32H7xx_HAL_Driver/Src/stm32h7xx_hal_rcc.c ****   RCC_OscInitStruct->PLL.PLLP = (uint32_t)((RCC->PLL1DIVR & RCC_PLL1DIVR_P1) >> RCC_PLL1DIVR_P1_Pos
 3012              		.loc 1 1670 3 is_stmt 1 view .LVU1008
 3013              		.loc 1 1670 48 is_stmt 0 view .LVU1009
 3014 009e 1A6B     		ldr	r2, [r3, #48]
 3015              		.loc 1 1670 33 view .LVU1010
 3016 00a0 C2F34622 		ubfx	r2, r2, #9, #7
ARM GAS  C:\Users\cinar\AppData\Local\Temp\ccnsnn81.s 			page 92


 3017              		.loc 1 1670 101 view .LVU1011
 3018 00a4 0132     		adds	r2, r2, #1
 3019              		.loc 1 1670 31 view .LVU1012
 3020 00a6 4263     		str	r2, [r0, #52]
1671:Drivers/STM32H7xx_HAL_Driver/Src/stm32h7xx_hal_rcc.c ****   RCC_OscInitStruct->PLL.PLLQ = (uint32_t)((RCC->PLL1DIVR & RCC_PLL1DIVR_Q1) >> RCC_PLL1DIVR_Q1_Pos
 3021              		.loc 1 1671 3 is_stmt 1 view .LVU1013
 3022              		.loc 1 1671 48 is_stmt 0 view .LVU1014
 3023 00a8 1A6B     		ldr	r2, [r3, #48]
 3024              		.loc 1 1671 33 view .LVU1015
 3025 00aa C2F30642 		ubfx	r2, r2, #16, #7
 3026              		.loc 1 1671 101 view .LVU1016
 3027 00ae 0132     		adds	r2, r2, #1
 3028              		.loc 1 1671 31 view .LVU1017
 3029 00b0 8263     		str	r2, [r0, #56]
1672:Drivers/STM32H7xx_HAL_Driver/Src/stm32h7xx_hal_rcc.c ****   RCC_OscInitStruct->PLL.PLLRGE = (uint32_t)((RCC->PLLCFGR & RCC_PLLCFGR_PLL1RGE));
 3030              		.loc 1 1672 3 is_stmt 1 view .LVU1018
 3031              		.loc 1 1672 50 is_stmt 0 view .LVU1019
 3032 00b2 DA6A     		ldr	r2, [r3, #44]
 3033              		.loc 1 1672 35 view .LVU1020
 3034 00b4 02F00C02 		and	r2, r2, #12
 3035              		.loc 1 1672 33 view .LVU1021
 3036 00b8 0264     		str	r2, [r0, #64]
1673:Drivers/STM32H7xx_HAL_Driver/Src/stm32h7xx_hal_rcc.c ****   RCC_OscInitStruct->PLL.PLLVCOSEL = (uint32_t)((RCC->PLLCFGR & RCC_PLLCFGR_PLL1VCOSEL) >> RCC_PLLC
 3037              		.loc 1 1673 3 is_stmt 1 view .LVU1022
 3038              		.loc 1 1673 53 is_stmt 0 view .LVU1023
 3039 00ba DA6A     		ldr	r2, [r3, #44]
 3040              		.loc 1 1673 38 view .LVU1024
 3041 00bc C2F34002 		ubfx	r2, r2, #1, #1
 3042              		.loc 1 1673 36 view .LVU1025
 3043 00c0 4264     		str	r2, [r0, #68]
1674:Drivers/STM32H7xx_HAL_Driver/Src/stm32h7xx_hal_rcc.c ****   RCC_OscInitStruct->PLL.PLLFRACN = (uint32_t)(((RCC->PLL1FRACR & RCC_PLL1FRACR_FRACN1) >> RCC_PLL1
 3044              		.loc 1 1674 3 is_stmt 1 view .LVU1026
 3045              		.loc 1 1674 53 is_stmt 0 view .LVU1027
 3046 00c2 5B6B     		ldr	r3, [r3, #52]
 3047              		.loc 1 1674 37 view .LVU1028
 3048 00c4 C3F3CC03 		ubfx	r3, r3, #3, #13
 3049              		.loc 1 1674 35 view .LVU1029
 3050 00c8 8364     		str	r3, [r0, #72]
1675:Drivers/STM32H7xx_HAL_Driver/Src/stm32h7xx_hal_rcc.c **** }
 3051              		.loc 1 1675 1 view .LVU1030
 3052 00ca 7047     		bx	lr
 3053              	.L233:
1548:Drivers/STM32H7xx_HAL_Driver/Src/stm32h7xx_hal_rcc.c ****   {
 3054              		.loc 1 1548 8 is_stmt 1 view .LVU1031
1548:Drivers/STM32H7xx_HAL_Driver/Src/stm32h7xx_hal_rcc.c ****   {
 3055              		.loc 1 1548 15 is_stmt 0 view .LVU1032
 3056 00cc 124B     		ldr	r3, .L249
 3057 00ce 1B68     		ldr	r3, [r3]
1548:Drivers/STM32H7xx_HAL_Driver/Src/stm32h7xx_hal_rcc.c ****   {
 3058              		.loc 1 1548 10 view .LVU1033
 3059 00d0 13F4803F 		tst	r3, #65536
 3060 00d4 03D0     		beq	.L235
1550:Drivers/STM32H7xx_HAL_Driver/Src/stm32h7xx_hal_rcc.c ****   }
 3061              		.loc 1 1550 5 is_stmt 1 view .LVU1034
1550:Drivers/STM32H7xx_HAL_Driver/Src/stm32h7xx_hal_rcc.c ****   }
 3062              		.loc 1 1550 33 is_stmt 0 view .LVU1035
 3063 00d6 4FF48033 		mov	r3, #65536
ARM GAS  C:\Users\cinar\AppData\Local\Temp\ccnsnn81.s 			page 93


 3064 00da 4360     		str	r3, [r0, #4]
 3065 00dc 9AE7     		b	.L234
 3066              	.L235:
1554:Drivers/STM32H7xx_HAL_Driver/Src/stm32h7xx_hal_rcc.c ****   }
 3067              		.loc 1 1554 5 is_stmt 1 view .LVU1036
1554:Drivers/STM32H7xx_HAL_Driver/Src/stm32h7xx_hal_rcc.c ****   }
 3068              		.loc 1 1554 33 is_stmt 0 view .LVU1037
 3069 00de 0023     		movs	r3, #0
 3070 00e0 4360     		str	r3, [r0, #4]
 3071 00e2 97E7     		b	.L234
 3072              	.L236:
1565:Drivers/STM32H7xx_HAL_Driver/Src/stm32h7xx_hal_rcc.c ****   }
 3073              		.loc 1 1565 5 is_stmt 1 view .LVU1038
1565:Drivers/STM32H7xx_HAL_Driver/Src/stm32h7xx_hal_rcc.c ****   }
 3074              		.loc 1 1565 33 is_stmt 0 view .LVU1039
 3075 00e4 0023     		movs	r3, #0
 3076 00e6 C361     		str	r3, [r0, #28]
 3077 00e8 9BE7     		b	.L237
 3078              	.L238:
1588:Drivers/STM32H7xx_HAL_Driver/Src/stm32h7xx_hal_rcc.c ****   }
 3079              		.loc 1 1588 5 is_stmt 1 view .LVU1040
1588:Drivers/STM32H7xx_HAL_Driver/Src/stm32h7xx_hal_rcc.c ****   }
 3080              		.loc 1 1588 33 is_stmt 0 view .LVU1041
 3081 00ea 0023     		movs	r3, #0
 3082 00ec C360     		str	r3, [r0, #12]
 3083 00ee A3E7     		b	.L239
 3084              	.L240:
1627:Drivers/STM32H7xx_HAL_Driver/Src/stm32h7xx_hal_rcc.c ****   {
 3085              		.loc 1 1627 8 is_stmt 1 view .LVU1042
1627:Drivers/STM32H7xx_HAL_Driver/Src/stm32h7xx_hal_rcc.c ****   {
 3086              		.loc 1 1627 15 is_stmt 0 view .LVU1043
 3087 00f0 094B     		ldr	r3, .L249
 3088 00f2 1B6F     		ldr	r3, [r3, #112]
1627:Drivers/STM32H7xx_HAL_Driver/Src/stm32h7xx_hal_rcc.c ****   {
 3089              		.loc 1 1627 10 view .LVU1044
 3090 00f4 13F0010F 		tst	r3, #1
 3091 00f8 02D0     		beq	.L242
1629:Drivers/STM32H7xx_HAL_Driver/Src/stm32h7xx_hal_rcc.c ****   }
 3092              		.loc 1 1629 5 is_stmt 1 view .LVU1045
1629:Drivers/STM32H7xx_HAL_Driver/Src/stm32h7xx_hal_rcc.c ****   }
 3093              		.loc 1 1629 33 is_stmt 0 view .LVU1046
 3094 00fa 0123     		movs	r3, #1
 3095 00fc 8360     		str	r3, [r0, #8]
 3096 00fe A6E7     		b	.L241
 3097              	.L242:
1633:Drivers/STM32H7xx_HAL_Driver/Src/stm32h7xx_hal_rcc.c ****   }
 3098              		.loc 1 1633 5 is_stmt 1 view .LVU1047
1633:Drivers/STM32H7xx_HAL_Driver/Src/stm32h7xx_hal_rcc.c ****   }
 3099              		.loc 1 1633 33 is_stmt 0 view .LVU1048
 3100 0100 0023     		movs	r3, #0
 3101 0102 8360     		str	r3, [r0, #8]
 3102 0104 A3E7     		b	.L241
 3103              	.L243:
1644:Drivers/STM32H7xx_HAL_Driver/Src/stm32h7xx_hal_rcc.c ****   }
 3104              		.loc 1 1644 5 is_stmt 1 view .LVU1049
1644:Drivers/STM32H7xx_HAL_Driver/Src/stm32h7xx_hal_rcc.c ****   }
 3105              		.loc 1 1644 33 is_stmt 0 view .LVU1050
ARM GAS  C:\Users\cinar\AppData\Local\Temp\ccnsnn81.s 			page 94


 3106 0106 0023     		movs	r3, #0
 3107 0108 4361     		str	r3, [r0, #20]
 3108 010a A7E7     		b	.L244
 3109              	.L245:
1654:Drivers/STM32H7xx_HAL_Driver/Src/stm32h7xx_hal_rcc.c ****   }
 3110              		.loc 1 1654 5 is_stmt 1 view .LVU1051
1654:Drivers/STM32H7xx_HAL_Driver/Src/stm32h7xx_hal_rcc.c ****   }
 3111              		.loc 1 1654 35 is_stmt 0 view .LVU1052
 3112 010c 0023     		movs	r3, #0
 3113 010e 8361     		str	r3, [r0, #24]
 3114 0110 ABE7     		b	.L246
 3115              	.L247:
1664:Drivers/STM32H7xx_HAL_Driver/Src/stm32h7xx_hal_rcc.c ****   }
 3116              		.loc 1 1664 5 is_stmt 1 view .LVU1053
1664:Drivers/STM32H7xx_HAL_Driver/Src/stm32h7xx_hal_rcc.c ****   }
 3117              		.loc 1 1664 37 is_stmt 0 view .LVU1054
 3118 0112 0123     		movs	r3, #1
 3119 0114 4362     		str	r3, [r0, #36]
 3120 0116 AFE7     		b	.L248
 3121              	.L250:
 3122              		.align	2
 3123              	.L249:
 3124 0118 00440258 		.word	1476543488
 3125              		.cfi_endproc
 3126              	.LFE154:
 3128              		.section	.text.HAL_RCC_GetClockConfig,"ax",%progbits
 3129              		.align	1
 3130              		.global	HAL_RCC_GetClockConfig
 3131              		.syntax unified
 3132              		.thumb
 3133              		.thumb_func
 3134              		.fpu fpv5-d16
 3136              	HAL_RCC_GetClockConfig:
 3137              	.LVL201:
 3138              	.LFB155:
1676:Drivers/STM32H7xx_HAL_Driver/Src/stm32h7xx_hal_rcc.c **** 
1677:Drivers/STM32H7xx_HAL_Driver/Src/stm32h7xx_hal_rcc.c **** /**
1678:Drivers/STM32H7xx_HAL_Driver/Src/stm32h7xx_hal_rcc.c ****   * @brief  Configures the RCC_ClkInitStruct according to the internal
1679:Drivers/STM32H7xx_HAL_Driver/Src/stm32h7xx_hal_rcc.c ****   * RCC configuration registers.
1680:Drivers/STM32H7xx_HAL_Driver/Src/stm32h7xx_hal_rcc.c ****   * @param  RCC_ClkInitStruct: pointer to an RCC_ClkInitTypeDef structure that
1681:Drivers/STM32H7xx_HAL_Driver/Src/stm32h7xx_hal_rcc.c ****   * will be configured.
1682:Drivers/STM32H7xx_HAL_Driver/Src/stm32h7xx_hal_rcc.c ****   * @param  pFLatency: Pointer on the Flash Latency.
1683:Drivers/STM32H7xx_HAL_Driver/Src/stm32h7xx_hal_rcc.c ****   * @retval None
1684:Drivers/STM32H7xx_HAL_Driver/Src/stm32h7xx_hal_rcc.c ****   */
1685:Drivers/STM32H7xx_HAL_Driver/Src/stm32h7xx_hal_rcc.c **** void HAL_RCC_GetClockConfig(RCC_ClkInitTypeDef  *RCC_ClkInitStruct, uint32_t *pFLatency)
1686:Drivers/STM32H7xx_HAL_Driver/Src/stm32h7xx_hal_rcc.c **** {
 3139              		.loc 1 1686 1 is_stmt 1 view -0
 3140              		.cfi_startproc
 3141              		@ args = 0, pretend = 0, frame = 0
 3142              		@ frame_needed = 0, uses_anonymous_args = 0
 3143              		@ link register save eliminated.
1687:Drivers/STM32H7xx_HAL_Driver/Src/stm32h7xx_hal_rcc.c ****   /* Set all possible values for the Clock type parameter --------------------*/
1688:Drivers/STM32H7xx_HAL_Driver/Src/stm32h7xx_hal_rcc.c ****   RCC_ClkInitStruct->ClockType = RCC_CLOCKTYPE_SYSCLK | RCC_CLOCKTYPE_HCLK | RCC_CLOCKTYPE_D1PCLK1 
 3144              		.loc 1 1688 3 view .LVU1056
 3145              		.loc 1 1688 32 is_stmt 0 view .LVU1057
 3146 0000 3F23     		movs	r3, #63
 3147 0002 0360     		str	r3, [r0]
ARM GAS  C:\Users\cinar\AppData\Local\Temp\ccnsnn81.s 			page 95


1689:Drivers/STM32H7xx_HAL_Driver/Src/stm32h7xx_hal_rcc.c ****                                  RCC_CLOCKTYPE_PCLK2 |  RCC_CLOCKTYPE_D3PCLK1  ;
1690:Drivers/STM32H7xx_HAL_Driver/Src/stm32h7xx_hal_rcc.c **** 
1691:Drivers/STM32H7xx_HAL_Driver/Src/stm32h7xx_hal_rcc.c ****   /* Get the SYSCLK configuration --------------------------------------------*/
1692:Drivers/STM32H7xx_HAL_Driver/Src/stm32h7xx_hal_rcc.c ****   RCC_ClkInitStruct->SYSCLKSource = (uint32_t)(RCC->CFGR & RCC_CFGR_SW);
 3148              		.loc 1 1692 3 is_stmt 1 view .LVU1058
 3149              		.loc 1 1692 51 is_stmt 0 view .LVU1059
 3150 0004 114B     		ldr	r3, .L252
 3151 0006 1A69     		ldr	r2, [r3, #16]
 3152              		.loc 1 1692 37 view .LVU1060
 3153 0008 02F00702 		and	r2, r2, #7
 3154              		.loc 1 1692 35 view .LVU1061
 3155 000c 4260     		str	r2, [r0, #4]
1693:Drivers/STM32H7xx_HAL_Driver/Src/stm32h7xx_hal_rcc.c **** 
1694:Drivers/STM32H7xx_HAL_Driver/Src/stm32h7xx_hal_rcc.c **** #if defined(RCC_D1CFGR_D1CPRE)
1695:Drivers/STM32H7xx_HAL_Driver/Src/stm32h7xx_hal_rcc.c ****   /* Get the SYSCLK configuration ----------------------------------------------*/
1696:Drivers/STM32H7xx_HAL_Driver/Src/stm32h7xx_hal_rcc.c ****   RCC_ClkInitStruct->SYSCLKDivider = (uint32_t)(RCC->D1CFGR & RCC_D1CFGR_D1CPRE);
 3156              		.loc 1 1696 3 is_stmt 1 view .LVU1062
 3157              		.loc 1 1696 52 is_stmt 0 view .LVU1063
 3158 000e 9A69     		ldr	r2, [r3, #24]
 3159              		.loc 1 1696 38 view .LVU1064
 3160 0010 02F47062 		and	r2, r2, #3840
 3161              		.loc 1 1696 36 view .LVU1065
 3162 0014 8260     		str	r2, [r0, #8]
1697:Drivers/STM32H7xx_HAL_Driver/Src/stm32h7xx_hal_rcc.c **** 
1698:Drivers/STM32H7xx_HAL_Driver/Src/stm32h7xx_hal_rcc.c ****   /* Get the D1HCLK configuration ----------------------------------------------*/
1699:Drivers/STM32H7xx_HAL_Driver/Src/stm32h7xx_hal_rcc.c ****   RCC_ClkInitStruct->AHBCLKDivider = (uint32_t)(RCC->D1CFGR & RCC_D1CFGR_HPRE);
 3163              		.loc 1 1699 3 is_stmt 1 view .LVU1066
 3164              		.loc 1 1699 52 is_stmt 0 view .LVU1067
 3165 0016 9A69     		ldr	r2, [r3, #24]
 3166              		.loc 1 1699 38 view .LVU1068
 3167 0018 02F00F02 		and	r2, r2, #15
 3168              		.loc 1 1699 36 view .LVU1069
 3169 001c C260     		str	r2, [r0, #12]
1700:Drivers/STM32H7xx_HAL_Driver/Src/stm32h7xx_hal_rcc.c **** 
1701:Drivers/STM32H7xx_HAL_Driver/Src/stm32h7xx_hal_rcc.c ****   /* Get the APB3 configuration ----------------------------------------------*/
1702:Drivers/STM32H7xx_HAL_Driver/Src/stm32h7xx_hal_rcc.c ****   RCC_ClkInitStruct->APB3CLKDivider = (uint32_t)(RCC->D1CFGR & RCC_D1CFGR_D1PPRE);
 3170              		.loc 1 1702 3 is_stmt 1 view .LVU1070
 3171              		.loc 1 1702 53 is_stmt 0 view .LVU1071
 3172 001e 9A69     		ldr	r2, [r3, #24]
 3173              		.loc 1 1702 39 view .LVU1072
 3174 0020 02F07002 		and	r2, r2, #112
 3175              		.loc 1 1702 37 view .LVU1073
 3176 0024 0261     		str	r2, [r0, #16]
1703:Drivers/STM32H7xx_HAL_Driver/Src/stm32h7xx_hal_rcc.c **** 
1704:Drivers/STM32H7xx_HAL_Driver/Src/stm32h7xx_hal_rcc.c ****   /* Get the APB1 configuration ----------------------------------------------*/
1705:Drivers/STM32H7xx_HAL_Driver/Src/stm32h7xx_hal_rcc.c ****   RCC_ClkInitStruct->APB1CLKDivider = (uint32_t)(RCC->D2CFGR & RCC_D2CFGR_D2PPRE1);
 3177              		.loc 1 1705 3 is_stmt 1 view .LVU1074
 3178              		.loc 1 1705 53 is_stmt 0 view .LVU1075
 3179 0026 DA69     		ldr	r2, [r3, #28]
 3180              		.loc 1 1705 39 view .LVU1076
 3181 0028 02F07002 		and	r2, r2, #112
 3182              		.loc 1 1705 37 view .LVU1077
 3183 002c 4261     		str	r2, [r0, #20]
1706:Drivers/STM32H7xx_HAL_Driver/Src/stm32h7xx_hal_rcc.c **** 
1707:Drivers/STM32H7xx_HAL_Driver/Src/stm32h7xx_hal_rcc.c ****   /* Get the APB2 configuration ----------------------------------------------*/
1708:Drivers/STM32H7xx_HAL_Driver/Src/stm32h7xx_hal_rcc.c ****   RCC_ClkInitStruct->APB2CLKDivider = (uint32_t)(RCC->D2CFGR & RCC_D2CFGR_D2PPRE2);
 3184              		.loc 1 1708 3 is_stmt 1 view .LVU1078
ARM GAS  C:\Users\cinar\AppData\Local\Temp\ccnsnn81.s 			page 96


 3185              		.loc 1 1708 53 is_stmt 0 view .LVU1079
 3186 002e DA69     		ldr	r2, [r3, #28]
 3187              		.loc 1 1708 39 view .LVU1080
 3188 0030 02F4E062 		and	r2, r2, #1792
 3189              		.loc 1 1708 37 view .LVU1081
 3190 0034 8261     		str	r2, [r0, #24]
1709:Drivers/STM32H7xx_HAL_Driver/Src/stm32h7xx_hal_rcc.c **** 
1710:Drivers/STM32H7xx_HAL_Driver/Src/stm32h7xx_hal_rcc.c ****   /* Get the APB4 configuration ----------------------------------------------*/
1711:Drivers/STM32H7xx_HAL_Driver/Src/stm32h7xx_hal_rcc.c ****   RCC_ClkInitStruct->APB4CLKDivider = (uint32_t)(RCC->D3CFGR & RCC_D3CFGR_D3PPRE);
 3191              		.loc 1 1711 3 is_stmt 1 view .LVU1082
 3192              		.loc 1 1711 53 is_stmt 0 view .LVU1083
 3193 0036 1B6A     		ldr	r3, [r3, #32]
 3194              		.loc 1 1711 39 view .LVU1084
 3195 0038 03F07003 		and	r3, r3, #112
 3196              		.loc 1 1711 37 view .LVU1085
 3197 003c C361     		str	r3, [r0, #28]
1712:Drivers/STM32H7xx_HAL_Driver/Src/stm32h7xx_hal_rcc.c **** #else
1713:Drivers/STM32H7xx_HAL_Driver/Src/stm32h7xx_hal_rcc.c ****   /* Get the SYSCLK configuration ----------------------------------------------*/
1714:Drivers/STM32H7xx_HAL_Driver/Src/stm32h7xx_hal_rcc.c ****   RCC_ClkInitStruct->SYSCLKDivider = (uint32_t)(RCC->CDCFGR1 & RCC_CDCFGR1_CDCPRE);
1715:Drivers/STM32H7xx_HAL_Driver/Src/stm32h7xx_hal_rcc.c **** 
1716:Drivers/STM32H7xx_HAL_Driver/Src/stm32h7xx_hal_rcc.c ****   /* Get the D1HCLK configuration ----------------------------------------------*/
1717:Drivers/STM32H7xx_HAL_Driver/Src/stm32h7xx_hal_rcc.c ****   RCC_ClkInitStruct->AHBCLKDivider = (uint32_t)(RCC->CDCFGR1 & RCC_CDCFGR1_HPRE);
1718:Drivers/STM32H7xx_HAL_Driver/Src/stm32h7xx_hal_rcc.c **** 
1719:Drivers/STM32H7xx_HAL_Driver/Src/stm32h7xx_hal_rcc.c ****   /* Get the APB3 configuration ----------------------------------------------*/
1720:Drivers/STM32H7xx_HAL_Driver/Src/stm32h7xx_hal_rcc.c ****   RCC_ClkInitStruct->APB3CLKDivider = (uint32_t)(RCC->CDCFGR1 & RCC_CDCFGR1_CDPPRE);
1721:Drivers/STM32H7xx_HAL_Driver/Src/stm32h7xx_hal_rcc.c **** 
1722:Drivers/STM32H7xx_HAL_Driver/Src/stm32h7xx_hal_rcc.c ****   /* Get the APB1 configuration ----------------------------------------------*/
1723:Drivers/STM32H7xx_HAL_Driver/Src/stm32h7xx_hal_rcc.c ****   RCC_ClkInitStruct->APB1CLKDivider = (uint32_t)(RCC->CDCFGR2 & RCC_CDCFGR2_CDPPRE1);
1724:Drivers/STM32H7xx_HAL_Driver/Src/stm32h7xx_hal_rcc.c **** 
1725:Drivers/STM32H7xx_HAL_Driver/Src/stm32h7xx_hal_rcc.c ****   /* Get the APB2 configuration ----------------------------------------------*/
1726:Drivers/STM32H7xx_HAL_Driver/Src/stm32h7xx_hal_rcc.c ****   RCC_ClkInitStruct->APB2CLKDivider = (uint32_t)(RCC->CDCFGR2 & RCC_CDCFGR2_CDPPRE2);
1727:Drivers/STM32H7xx_HAL_Driver/Src/stm32h7xx_hal_rcc.c **** 
1728:Drivers/STM32H7xx_HAL_Driver/Src/stm32h7xx_hal_rcc.c ****   /* Get the APB4 configuration ----------------------------------------------*/
1729:Drivers/STM32H7xx_HAL_Driver/Src/stm32h7xx_hal_rcc.c ****   RCC_ClkInitStruct->APB4CLKDivider = (uint32_t)(RCC->SRDCFGR & RCC_SRDCFGR_SRDPPRE);
1730:Drivers/STM32H7xx_HAL_Driver/Src/stm32h7xx_hal_rcc.c **** #endif
1731:Drivers/STM32H7xx_HAL_Driver/Src/stm32h7xx_hal_rcc.c **** 
1732:Drivers/STM32H7xx_HAL_Driver/Src/stm32h7xx_hal_rcc.c ****   /* Get the Flash Wait State (Latency) configuration ------------------------*/
1733:Drivers/STM32H7xx_HAL_Driver/Src/stm32h7xx_hal_rcc.c ****   *pFLatency = (uint32_t)(FLASH->ACR & FLASH_ACR_LATENCY);
 3198              		.loc 1 1733 3 is_stmt 1 view .LVU1086
 3199              		.loc 1 1733 32 is_stmt 0 view .LVU1087
 3200 003e 044B     		ldr	r3, .L252+4
 3201 0040 1B68     		ldr	r3, [r3]
 3202              		.loc 1 1733 16 view .LVU1088
 3203 0042 03F00F03 		and	r3, r3, #15
 3204              		.loc 1 1733 14 view .LVU1089
 3205 0046 0B60     		str	r3, [r1]
1734:Drivers/STM32H7xx_HAL_Driver/Src/stm32h7xx_hal_rcc.c **** }
 3206              		.loc 1 1734 1 view .LVU1090
 3207 0048 7047     		bx	lr
 3208              	.L253:
 3209 004a 00BF     		.align	2
 3210              	.L252:
 3211 004c 00440258 		.word	1476543488
 3212 0050 00200052 		.word	1375739904
 3213              		.cfi_endproc
 3214              	.LFE155:
 3216              		.section	.text.HAL_RCC_CSSCallback,"ax",%progbits
ARM GAS  C:\Users\cinar\AppData\Local\Temp\ccnsnn81.s 			page 97


 3217              		.align	1
 3218              		.weak	HAL_RCC_CSSCallback
 3219              		.syntax unified
 3220              		.thumb
 3221              		.thumb_func
 3222              		.fpu fpv5-d16
 3224              	HAL_RCC_CSSCallback:
 3225              	.LFB157:
1735:Drivers/STM32H7xx_HAL_Driver/Src/stm32h7xx_hal_rcc.c **** 
1736:Drivers/STM32H7xx_HAL_Driver/Src/stm32h7xx_hal_rcc.c **** /**
1737:Drivers/STM32H7xx_HAL_Driver/Src/stm32h7xx_hal_rcc.c ****   * @brief This function handles the RCC CSS interrupt request.
1738:Drivers/STM32H7xx_HAL_Driver/Src/stm32h7xx_hal_rcc.c ****   * @note This API should be called under the NMI_Handler().
1739:Drivers/STM32H7xx_HAL_Driver/Src/stm32h7xx_hal_rcc.c ****   * @retval None
1740:Drivers/STM32H7xx_HAL_Driver/Src/stm32h7xx_hal_rcc.c ****   */
1741:Drivers/STM32H7xx_HAL_Driver/Src/stm32h7xx_hal_rcc.c **** void HAL_RCC_NMI_IRQHandler(void)
1742:Drivers/STM32H7xx_HAL_Driver/Src/stm32h7xx_hal_rcc.c **** {
1743:Drivers/STM32H7xx_HAL_Driver/Src/stm32h7xx_hal_rcc.c ****   /* Check RCC CSSF flag  */
1744:Drivers/STM32H7xx_HAL_Driver/Src/stm32h7xx_hal_rcc.c ****   if(__HAL_RCC_GET_IT(RCC_IT_CSS))
1745:Drivers/STM32H7xx_HAL_Driver/Src/stm32h7xx_hal_rcc.c ****   {
1746:Drivers/STM32H7xx_HAL_Driver/Src/stm32h7xx_hal_rcc.c ****     /* RCC Clock Security System interrupt user callback */
1747:Drivers/STM32H7xx_HAL_Driver/Src/stm32h7xx_hal_rcc.c ****     HAL_RCC_CCSCallback();
1748:Drivers/STM32H7xx_HAL_Driver/Src/stm32h7xx_hal_rcc.c **** 
1749:Drivers/STM32H7xx_HAL_Driver/Src/stm32h7xx_hal_rcc.c ****     /* Clear RCC CSS pending bit */
1750:Drivers/STM32H7xx_HAL_Driver/Src/stm32h7xx_hal_rcc.c ****     __HAL_RCC_CLEAR_IT(RCC_IT_CSS);
1751:Drivers/STM32H7xx_HAL_Driver/Src/stm32h7xx_hal_rcc.c ****   }
1752:Drivers/STM32H7xx_HAL_Driver/Src/stm32h7xx_hal_rcc.c **** }
1753:Drivers/STM32H7xx_HAL_Driver/Src/stm32h7xx_hal_rcc.c **** 
1754:Drivers/STM32H7xx_HAL_Driver/Src/stm32h7xx_hal_rcc.c **** /**
1755:Drivers/STM32H7xx_HAL_Driver/Src/stm32h7xx_hal_rcc.c ****   * @brief  RCC Clock Security System interrupt callback
1756:Drivers/STM32H7xx_HAL_Driver/Src/stm32h7xx_hal_rcc.c ****   * @retval none
1757:Drivers/STM32H7xx_HAL_Driver/Src/stm32h7xx_hal_rcc.c ****   */
1758:Drivers/STM32H7xx_HAL_Driver/Src/stm32h7xx_hal_rcc.c **** __weak void HAL_RCC_CCSCallback(void)
1759:Drivers/STM32H7xx_HAL_Driver/Src/stm32h7xx_hal_rcc.c **** {
 3226              		.loc 1 1759 1 is_stmt 1 view -0
 3227              		.cfi_startproc
 3228              		@ args = 0, pretend = 0, frame = 0
 3229              		@ frame_needed = 0, uses_anonymous_args = 0
 3230              		@ link register save eliminated.
1760:Drivers/STM32H7xx_HAL_Driver/Src/stm32h7xx_hal_rcc.c ****   /* NOTE : This function Should not be modified, when the callback is needed,
1761:Drivers/STM32H7xx_HAL_Driver/Src/stm32h7xx_hal_rcc.c ****             the HAL_RCC_CCSCallback could be implemented in the user file
1762:Drivers/STM32H7xx_HAL_Driver/Src/stm32h7xx_hal_rcc.c ****    */
1763:Drivers/STM32H7xx_HAL_Driver/Src/stm32h7xx_hal_rcc.c **** }
 3231              		.loc 1 1763 1 view .LVU1092
 3232 0000 7047     		bx	lr
 3233              		.cfi_endproc
 3234              	.LFE157:
 3236              		.section	.text.HAL_RCC_NMI_IRQHandler,"ax",%progbits
 3237              		.align	1
 3238              		.global	HAL_RCC_NMI_IRQHandler
 3239              		.syntax unified
 3240              		.thumb
 3241              		.thumb_func
 3242              		.fpu fpv5-d16
 3244              	HAL_RCC_NMI_IRQHandler:
 3245              	.LFB156:
1742:Drivers/STM32H7xx_HAL_Driver/Src/stm32h7xx_hal_rcc.c ****   /* Check RCC CSSF flag  */
 3246              		.loc 1 1742 1 view -0
ARM GAS  C:\Users\cinar\AppData\Local\Temp\ccnsnn81.s 			page 98


 3247              		.cfi_startproc
 3248              		@ args = 0, pretend = 0, frame = 0
 3249              		@ frame_needed = 0, uses_anonymous_args = 0
 3250 0000 08B5     		push	{r3, lr}
 3251              	.LCFI18:
 3252              		.cfi_def_cfa_offset 8
 3253              		.cfi_offset 3, -8
 3254              		.cfi_offset 14, -4
1744:Drivers/STM32H7xx_HAL_Driver/Src/stm32h7xx_hal_rcc.c ****   {
 3255              		.loc 1 1744 3 view .LVU1094
1744:Drivers/STM32H7xx_HAL_Driver/Src/stm32h7xx_hal_rcc.c ****   {
 3256              		.loc 1 1744 6 is_stmt 0 view .LVU1095
 3257 0002 064B     		ldr	r3, .L259
 3258 0004 5B6E     		ldr	r3, [r3, #100]
1744:Drivers/STM32H7xx_HAL_Driver/Src/stm32h7xx_hal_rcc.c ****   {
 3259              		.loc 1 1744 5 view .LVU1096
 3260 0006 13F4806F 		tst	r3, #1024
 3261 000a 00D1     		bne	.L258
 3262              	.L255:
1752:Drivers/STM32H7xx_HAL_Driver/Src/stm32h7xx_hal_rcc.c **** 
 3263              		.loc 1 1752 1 view .LVU1097
 3264 000c 08BD     		pop	{r3, pc}
 3265              	.L258:
1747:Drivers/STM32H7xx_HAL_Driver/Src/stm32h7xx_hal_rcc.c **** 
 3266              		.loc 1 1747 5 is_stmt 1 view .LVU1098
 3267 000e FFF7FEFF 		bl	HAL_RCC_CSSCallback
 3268              	.LVL202:
1750:Drivers/STM32H7xx_HAL_Driver/Src/stm32h7xx_hal_rcc.c ****   }
 3269              		.loc 1 1750 5 view .LVU1099
 3270 0012 024B     		ldr	r3, .L259
 3271 0014 4FF48062 		mov	r2, #1024
 3272 0018 9A66     		str	r2, [r3, #104]
1752:Drivers/STM32H7xx_HAL_Driver/Src/stm32h7xx_hal_rcc.c **** 
 3273              		.loc 1 1752 1 is_stmt 0 view .LVU1100
 3274 001a F7E7     		b	.L255
 3275              	.L260:
 3276              		.align	2
 3277              	.L259:
 3278 001c 00440258 		.word	1476543488
 3279              		.cfi_endproc
 3280              	.LFE156:
 3282              		.text
 3283              	.Letext0:
 3284              		.file 2 "c:\\dev\\tools\\gcc-arm-none-eabi-10-2020-q4-major\\arm-none-eabi\\include\\machine\\_def
 3285              		.file 3 "c:\\dev\\tools\\gcc-arm-none-eabi-10-2020-q4-major\\arm-none-eabi\\include\\sys\\_stdint.
 3286              		.file 4 "Drivers/CMSIS/Device/ST/STM32H7xx/Include/system_stm32h7xx.h"
 3287              		.file 5 "Drivers/CMSIS/Device/ST/STM32H7xx/Include/stm32h723xx.h"
 3288              		.file 6 "c:\\dev\\tools\\gcc-arm-none-eabi-10-2020-q4-major\\arm-none-eabi\\include\\math.h"
 3289              		.file 7 "Drivers/STM32H7xx_HAL_Driver/Inc/stm32h7xx_hal_def.h"
 3290              		.file 8 "Drivers/STM32H7xx_HAL_Driver/Inc/stm32h7xx_hal_rcc.h"
 3291              		.file 9 "Drivers/STM32H7xx_HAL_Driver/Inc/stm32h7xx_hal_gpio.h"
 3292              		.file 10 "Drivers/STM32H7xx_HAL_Driver/Inc/stm32h7xx_hal.h"
ARM GAS  C:\Users\cinar\AppData\Local\Temp\ccnsnn81.s 			page 99


DEFINED SYMBOLS
                            *ABS*:00000000 stm32h7xx_hal_rcc.c
C:\Users\cinar\AppData\Local\Temp\ccnsnn81.s:17     .text.HAL_RCC_DeInit:00000000 $t
C:\Users\cinar\AppData\Local\Temp\ccnsnn81.s:25     .text.HAL_RCC_DeInit:00000000 HAL_RCC_DeInit
C:\Users\cinar\AppData\Local\Temp\ccnsnn81.s:372    .text.HAL_RCC_DeInit:000001a4 $d
C:\Users\cinar\AppData\Local\Temp\ccnsnn81.s:386    .text.HAL_RCC_OscConfig:00000000 $t
C:\Users\cinar\AppData\Local\Temp\ccnsnn81.s:393    .text.HAL_RCC_OscConfig:00000000 HAL_RCC_OscConfig
C:\Users\cinar\AppData\Local\Temp\ccnsnn81.s:983    .text.HAL_RCC_OscConfig:0000028c $d
C:\Users\cinar\AppData\Local\Temp\ccnsnn81.s:988    .text.HAL_RCC_OscConfig:00000290 $t
C:\Users\cinar\AppData\Local\Temp\ccnsnn81.s:1515   .text.HAL_RCC_OscConfig:00000534 $d
C:\Users\cinar\AppData\Local\Temp\ccnsnn81.s:1529   .text.HAL_RCC_OscConfig:00000544 $t
C:\Users\cinar\AppData\Local\Temp\ccnsnn81.s:1607   .text.HAL_RCC_MCOConfig:00000000 $t
C:\Users\cinar\AppData\Local\Temp\ccnsnn81.s:1614   .text.HAL_RCC_MCOConfig:00000000 HAL_RCC_MCOConfig
C:\Users\cinar\AppData\Local\Temp\ccnsnn81.s:1764   .text.HAL_RCC_MCOConfig:00000098 $d
C:\Users\cinar\AppData\Local\Temp\ccnsnn81.s:1771   .text.HAL_RCC_EnableCSS:00000000 $t
C:\Users\cinar\AppData\Local\Temp\ccnsnn81.s:1778   .text.HAL_RCC_EnableCSS:00000000 HAL_RCC_EnableCSS
C:\Users\cinar\AppData\Local\Temp\ccnsnn81.s:1795   .text.HAL_RCC_EnableCSS:0000000c $d
C:\Users\cinar\AppData\Local\Temp\ccnsnn81.s:1800   .text.HAL_RCC_DisableCSS:00000000 $t
C:\Users\cinar\AppData\Local\Temp\ccnsnn81.s:1807   .text.HAL_RCC_DisableCSS:00000000 HAL_RCC_DisableCSS
C:\Users\cinar\AppData\Local\Temp\ccnsnn81.s:1824   .text.HAL_RCC_DisableCSS:0000000c $d
C:\Users\cinar\AppData\Local\Temp\ccnsnn81.s:1829   .text.HAL_RCC_GetSysClockFreq:00000000 $t
C:\Users\cinar\AppData\Local\Temp\ccnsnn81.s:1836   .text.HAL_RCC_GetSysClockFreq:00000000 HAL_RCC_GetSysClockFreq
C:\Users\cinar\AppData\Local\Temp\ccnsnn81.s:2149   .text.HAL_RCC_GetSysClockFreq:000001d4 $d
C:\Users\cinar\AppData\Local\Temp\ccnsnn81.s:2161   .text.HAL_RCC_ClockConfig:00000000 $t
C:\Users\cinar\AppData\Local\Temp\ccnsnn81.s:2168   .text.HAL_RCC_ClockConfig:00000000 HAL_RCC_ClockConfig
C:\Users\cinar\AppData\Local\Temp\ccnsnn81.s:2694   .text.HAL_RCC_ClockConfig:0000027c $d
C:\Users\cinar\AppData\Local\Temp\ccnsnn81.s:2704   .text.HAL_RCC_GetHCLKFreq:00000000 $t
C:\Users\cinar\AppData\Local\Temp\ccnsnn81.s:2711   .text.HAL_RCC_GetHCLKFreq:00000000 HAL_RCC_GetHCLKFreq
C:\Users\cinar\AppData\Local\Temp\ccnsnn81.s:2766   .text.HAL_RCC_GetHCLKFreq:00000034 $d
C:\Users\cinar\AppData\Local\Temp\ccnsnn81.s:2774   .text.HAL_RCC_GetPCLK1Freq:00000000 $t
C:\Users\cinar\AppData\Local\Temp\ccnsnn81.s:2781   .text.HAL_RCC_GetPCLK1Freq:00000000 HAL_RCC_GetPCLK1Freq
C:\Users\cinar\AppData\Local\Temp\ccnsnn81.s:2812   .text.HAL_RCC_GetPCLK1Freq:0000001c $d
C:\Users\cinar\AppData\Local\Temp\ccnsnn81.s:2818   .text.HAL_RCC_GetPCLK2Freq:00000000 $t
C:\Users\cinar\AppData\Local\Temp\ccnsnn81.s:2825   .text.HAL_RCC_GetPCLK2Freq:00000000 HAL_RCC_GetPCLK2Freq
C:\Users\cinar\AppData\Local\Temp\ccnsnn81.s:2856   .text.HAL_RCC_GetPCLK2Freq:0000001c $d
C:\Users\cinar\AppData\Local\Temp\ccnsnn81.s:2862   .text.HAL_RCC_GetOscConfig:00000000 $t
C:\Users\cinar\AppData\Local\Temp\ccnsnn81.s:2869   .text.HAL_RCC_GetOscConfig:00000000 HAL_RCC_GetOscConfig
C:\Users\cinar\AppData\Local\Temp\ccnsnn81.s:3124   .text.HAL_RCC_GetOscConfig:00000118 $d
C:\Users\cinar\AppData\Local\Temp\ccnsnn81.s:3129   .text.HAL_RCC_GetClockConfig:00000000 $t
C:\Users\cinar\AppData\Local\Temp\ccnsnn81.s:3136   .text.HAL_RCC_GetClockConfig:00000000 HAL_RCC_GetClockConfig
C:\Users\cinar\AppData\Local\Temp\ccnsnn81.s:3211   .text.HAL_RCC_GetClockConfig:0000004c $d
C:\Users\cinar\AppData\Local\Temp\ccnsnn81.s:3217   .text.HAL_RCC_CSSCallback:00000000 $t
C:\Users\cinar\AppData\Local\Temp\ccnsnn81.s:3224   .text.HAL_RCC_CSSCallback:00000000 HAL_RCC_CSSCallback
C:\Users\cinar\AppData\Local\Temp\ccnsnn81.s:3237   .text.HAL_RCC_NMI_IRQHandler:00000000 $t
C:\Users\cinar\AppData\Local\Temp\ccnsnn81.s:3244   .text.HAL_RCC_NMI_IRQHandler:00000000 HAL_RCC_NMI_IRQHandler
C:\Users\cinar\AppData\Local\Temp\ccnsnn81.s:3278   .text.HAL_RCC_NMI_IRQHandler:0000001c $d

UNDEFINED SYMBOLS
HAL_GetTick
HAL_InitTick
SystemCoreClock
SystemD2Clock
uwTickPrio
HAL_GPIO_Init
D1CorePrescTable
